(lp0
(lp1
F1.39554445571
aa(lp2
F1.5519586616
aa(lp3
F1.29968854253
aa(lp4
F2.94435985092
aa(lp5
F3.5386404752
aa(lp6
F2.56548852418
aa(lp7
F2.51575417595
aa(lp8
F3.3029362694
aa(lp9
F3.06573466529
aa(lp10
F2.89717076741
aa(lp11
F3.51156523205
aa(lp12
F3.43042494095
aa(lp13
F3.4772100586
aa(lp14
F2.16305954884
aa(lp15
F3.15226008335
aa(lp16
F3.10567233838
aa(lp17
F2.91265752468
aa(lp18
F3.08630161942
aa(lp19
F3.29674504989
aa(lp20
F2.44220452537
aa(lp21
F3.4323518722
aa(lp22
F3.03763307351
aa(lp23
F3.74056733465
aa(lp24
F3.08335065578
aa(lp25
F0.94449814085
aa(lp26
F2.35052893705
aa(lp27
F2.97863373421
aa(lp28
F3.59762255524
aa(lp29
F3.21222574075
aa(lp30
F3.06181475406
aa(lp31
F3.44918387207
aa(lp32
F2.82040895614
aa(lp33
F3.77309313325
aa(lp34
F2.70643726049
aa(lp35
F2.32000227844
aa(lp36
F1.81595879757
aa(lp37
F3.87319689855
aa(lp38
F2.68861327253
aa(lp39
F3.30568582039
aa(lp40
F3.34172809293
aa(lp41
F2.84134839171
aa(lp42
F4.12629720161
aa(lp43
F3.31610966065
aa(lp44
F3.51002561275
aa(lp45
F3.31853892015
aa(lp46
F3.32939903257
aa(lp47
F1.90130853908
aa(lp48
F3.22620255482
aa(lp49
F3.18082993993
aa(lp50
F2.17628922747
aa(lp51
F3.08243319198
aa(lp52
F3.78733342563
aa(lp53
F3.47284756286
aa(lp54
F2.87812646378
aa(lp55
F3.35613646508
aa(lp56
F3.50410611394
aa(lp57
F2.94253435119
aa(lp58
F1.39084618867
aa(lp59
F2.69777594335
aa(lp60
F2.93956531472
aa(lp61
F4.00947441147
aa(lp62
F2.99475349689
aa(lp63
F3.23750515098
aa(lp64
F2.81191858724
aa(lp65
F3.34439934398
aa(lp66
F2.4018212393
aa(lp67
F3.68098786423
aa(lp68
F3.10961367854
aa(lp69
F1.77297662715
aa(lp70
F2.61745401191
aa(lp71
F4.04482208264
aa(lp72
F3.78998937874
aa(lp73
F2.55073433226
aa(lp74
F3.54847944394
aa(lp75
F3.2025157336
aa(lp76
F3.18614919977
aa(lp77
F2.77060964639
aa(lp78
F3.42133182435
aa(lp79
F3.4925437829
aa(lp80
F1.48775982784
aa(lp81
F2.2748302576
aa(lp82
F3.3096183232
aa(lp83
F4.29792794041
aa(lp84
F3.15948068292
aa(lp85
F3.88022874717
aa(lp86
F2.88286510933
aa(lp87
F3.92454264829
aa(lp88
F2.64752624616
aa(lp89
F2.86599785869
aa(lp90
F3.13837373871
aa(lp91
F1.57107418727
aa(lp92
F3.35639754707
aa(lp93
F3.03026533625
aa(lp94
F2.9449006937
aa(lp95
F3.50522394643
aa(lp96
F3.30438062175
aa(lp97
F3.15500233447
aa(lp98
F3.8648753072
aa(lp99
F3.31283244655
aa(lp100
F2.69334906218
aa(lp101
F3.25943805194
aa(lp102
F2.24736000222
aa(lp103
F4.53367670931
aa(lp104
F3.27767460639
aa(lp105
F3.12984025937
aa(lp106
F2.29001213768
aa(lp107
F2.88091283295
aa(lp108
F2.57279486579
aa(lp109
F2.2823990939
aa(lp110
F3.47159510356
aa(lp111
F3.00132614276
aa(lp112
F3.68747066898
aa(lp113
F1.14039003196
aa(lp114
F2.06953299261
aa(lp115
F3.94303824112
aa(lp116
F4.42875827517
aa(lp117
F4.23685787972
aa(lp118
F4.67063896788
aa(lp119
F3.56105156907
aa(lp120
F4.79769449413
aa(lp121
F3.56851301509
aa(lp122
F3.8210225953
aa(lp123
F4.38926088882
aa(lp124
F4.20047932487
aa(lp125
F1.68278964999
aa(lp126
F4.33132951371
aa(lp127
F4.71480748078
aa(lp128
F4.57070134152
aa(lp129
F3.67160859905
aa(lp130
F3.9281938321
aa(lp131
F4.59546332189
aa(lp132
F3.94975933185
aa(lp133
F4.19297652447
aa(lp134
F3.87325344467
aa(lp135
F3.76346184601
aa(lp136
F1.87059223952
aa(lp137
F4.86490063191
aa(lp138
F4.81704379109
aa(lp139
F3.7753541174
aa(lp140
F4.00128385943
aa(lp141
F3.5858968006
aa(lp142
F4.33947839252
aa(lp143
F4.29677663465
aa(lp144
F4.40660259716
aa(lp145
F3.31656970196
aa(lp146
F4.41646342114
aa(lp147
F1.37158713724
aa(lp148
F4.88650680547
aa(lp149
F3.59432924159
aa(lp150
F4.75732779569
aa(lp151
F3.77974167305
aa(lp152
F4.77174873728
aa(lp153
F4.78210974672
aa(lp154
F4.07289386983
aa(lp155
F3.99404725786
aa(lp156
F4.4780056372
aa(lp157
F3.4564176077
aa(lp158
F1.34835973589
aa(lp159
F4.47532167479
aa(lp160
F4.14960099356
aa(lp161
F3.81804401662
aa(lp162
F4.60676838171
aa(lp163
F4.04641003772
aa(lp164
F4.24701612226
aa(lp165
F4.09216390546
aa(lp166
F5.1249119862
aa(lp167
F3.52146182628
aa(lp168
F4.12379990096
aa(lp169
F1.81570977068
aa(lp170
F4.59234412769
aa(lp171
F4.11323286428
aa(lp172
F4.53049454417
aa(lp173
F3.85268647719
aa(lp174
F4.97889161524
aa(lp175
F4.6745182006
aa(lp176
F4.18335345734
aa(lp177
F4.67601290027
aa(lp178
F4.21084719351
aa(lp179
F4.64547323074
aa(lp180
F1.95017688911
aa(lp181
F4.27543038077
aa(lp182
F4.95484536389
aa(lp183
F3.92948993842
aa(lp184
F3.82197146393
aa(lp185
F3.79000749856
aa(lp186
F4.32552569631
aa(lp187
F4.68353406257
aa(lp188
F3.40649234295
aa(lp189
F3.68307331165
aa(lp190
F4.22756554569
aa(lp191
F1.22997588995
aa(lp192
F4.94596389257
aa(lp193
F3.55493060487
aa(lp194
F4.23523619134
aa(lp195
F4.24138812323
aa(lp196
F4.3854828563
aa(lp197
F3.63203263235
aa(lp198
F3.66112935208
aa(lp199
F4.26644061601
aa(lp200
F2.88999589781
aa(lp201
F4.28370365913
aa(lp202
F2.13204717184
aa(lp203
F3.97372574177
aa(lp204
F4.52398859007
aa(lp205
F4.02990193131
aa(lp206
F4.26866593316
aa(lp207
F4.39504667057
aa(lp208
F4.2883884029
aa(lp209
F4.42604355321
aa(lp210
F3.94417396778
aa(lp211
F3.38270041848
aa(lp212
F3.86299403414
aa(lp213
F2.03608775839
aa(lp214
F4.8376032893
aa(lp215
F4.34268497581
aa(lp216
F3.61640411274
aa(lp217
F3.06815540185
aa(lp218
F4.75490234215
aa(lp219
F3.92916052533
aa(lp220
F4.61821901314
aa(lp221
F3.66005404483
aa(lp222
F3.44621073208
aa(lp223
F3.05210179316
aa(lp224
F1.2034576858
aa(lp225
F1.40302643973
aa(lp226
F5.00471896015
aa(lp227
F4.03440544114
aa(lp228
F3.99011637753
aa(lp229
F4.40785671718
aa(lp230
F4.74938610578
aa(lp231
F4.53045974279
aa(lp232
F5.30925781252
aa(lp233
F4.92131529244
aa(lp234
F6.49468757274
aa(lp235
F5.10749367653
aa(lp236
F2.31874923856
aa(lp237
F5.00351628793
aa(lp238
F5.06080430205
aa(lp239
F4.9500835198
aa(lp240
F4.93034688979
aa(lp241
F3.91914540698
aa(lp242
F5.01870843082
aa(lp243
F4.15980697653
aa(lp244
F5.12376904885
aa(lp245
F4.58453422946
aa(lp246
F5.28945208926
aa(lp247
F1.50905397833
aa(lp248
F4.22964456837
aa(lp249
F4.22747902721
aa(lp250
F3.81658427025
aa(lp251
F4.2903892766
aa(lp252
F3.99105535271
aa(lp253
F5.13507402479
aa(lp254
F4.4754782228
aa(lp255
F5.10983217012
aa(lp256
F5.5432994852
aa(lp257
F4.89477069877
aa(lp258
F1.00260086872
aa(lp259
F4.31150109764
aa(lp260
F3.60104566593
aa(lp261
F4.5367150428
aa(lp262
F5.04355972585
aa(lp263
F4.05216805141
aa(lp264
F4.96575777115
aa(lp265
F5.07250174976
aa(lp266
F4.23469316759
aa(lp267
F4.12248008004
aa(lp268
F4.53074518768
aa(lp269
F2.41018527331
aa(lp270
F4.46060417889
aa(lp271
F5.05845992795
aa(lp272
F5.03799738889
aa(lp273
F5.07146881749
aa(lp274
F5.16651046976
aa(lp275
F5.20389766759
aa(lp276
F5.0247977185
aa(lp277
F4.82314795264
aa(lp278
F3.62560386268
aa(lp279
F4.98301442383
aa(lp280
F1.72664570331
aa(lp281
F5.47951043346
aa(lp282
F3.83177132617
aa(lp283
F4.51984748095
aa(lp284
F4.96088232684
aa(lp285
F5.45449384826
aa(lp286
F5.78524147155
aa(lp287
F5.00242852379
aa(lp288
F5.91719251254
aa(lp289
F4.67669324858
aa(lp290
F3.82037698575
aa(lp291
F2.31321712822
aa(lp292
F5.14305673542
aa(lp293
F4.97935324316
aa(lp294
F4.37950183744
aa(lp295
F4.54548039833
aa(lp296
F5.66480279758
aa(lp297
F5.4848346402
aa(lp298
F4.9707115874
aa(lp299
F5.43648735194
aa(lp300
F4.29258621232
aa(lp301
F4.41484456437
aa(lp302
F1.64360144735
aa(lp303
F4.83128706053
aa(lp304
F5.19258565028
aa(lp305
F5.47194827444
aa(lp306
F4.80513729795
aa(lp307
F4.96985445296
aa(lp308
F4.85987406956
aa(lp309
F4.94786078842
aa(lp310
F4.74177518326
aa(lp311
F4.1910301006
aa(lp312
F5.5439409028
aa(lp313
F1.76176173066
aa(lp314
F5.14261944612
aa(lp315
F4.15449736966
aa(lp316
F4.54181006155
aa(lp317
F4.51221029523
aa(lp318
F3.83835463309
aa(lp319
F4.42466990076
aa(lp320
F4.56928667444
aa(lp321
F4.48969407744
aa(lp322
F5.41351507707
aa(lp323
F4.59496873865
aa(lp324
F1.1039839522
aa(lp325
F5.28055447454
aa(lp326
F4.33614021441
aa(lp327
F4.91142576686
aa(lp328
F4.79685785138
aa(lp329
F5.85509376276
aa(lp330
F5.2077056726
aa(lp331
F4.86211342989
aa(lp332
F4.88664175973
aa(lp333
F4.94312465261
aa(lp334
F4.5564547023
aa(lp335
F1.31698890308
aa(lp336
F1.52710335782
aa(lp337
F5.18015100312
aa(lp338
F4.94922760289
aa(lp339
F6.47614705269
aa(lp340
F4.35000657868
aa(lp341
F5.95503327694
aa(lp342
F4.1799538843
aa(lp343
F5.71948561456
aa(lp344
F6.22668285111
aa(lp345
F4.43932455927
aa(lp346
F5.29184628241
aa(lp347
F1.38496733658
aa(lp348
F4.02111613173
aa(lp349
F6.18872045003
aa(lp350
F4.30608953332
aa(lp351
F5.6294108197
aa(lp352
F5.77830972359
aa(lp353
F6.17426268414
aa(lp354
F5.9839849248
aa(lp355
F5.63035136735
aa(lp356
F4.53783916272
aa(lp357
F6.55094178983
aa(lp358
F1.31959206122
aa(lp359
F4.56989097943
aa(lp360
F4.96750297741
aa(lp361
F6.30582382282
aa(lp362
F4.9766718096
aa(lp363
F5.50210285112
aa(lp364
F3.6999574053
aa(lp365
F5.36351726108
aa(lp366
F4.5940652704
aa(lp367
F6.0285345287
aa(lp368
F4.62772474556
aa(lp369
F1.78360509203
aa(lp370
F6.84478759966
aa(lp371
F5.80069022559
aa(lp372
F3.9063811967
aa(lp373
F6.18322328405
aa(lp374
F4.92857712558
aa(lp375
F4.33346494849
aa(lp376
F4.57841749334
aa(lp377
F5.89588746577
aa(lp378
F6.76040380521
aa(lp379
F6.7894940322
aa(lp380
F2.04551714187
aa(lp381
F4.73183876871
aa(lp382
F5.65022034075
aa(lp383
F6.29459968609
aa(lp384
F5.46867476388
aa(lp385
F4.57639655249
aa(lp386
F6.22275297048
aa(lp387
F6.47964960156
aa(lp388
F3.84473638962
aa(lp389
F5.42456168146
aa(lp390
F4.90803357204
aa(lp391
F1.30106502176
aa(lp392
F6.24705779549
aa(lp393
F4.8042897339
aa(lp394
F4.47443599221
aa(lp395
F5.51661180538
aa(lp396
F6.51024040678
aa(lp397
F4.05077409251
aa(lp398
F6.1463199405
aa(lp399
F4.76846864413
aa(lp400
F5.34926401927
aa(lp401
F6.491216068
aa(lp402
F2.33623706097
aa(lp403
F6.67797890234
aa(lp404
F4.35307799539
aa(lp405
F6.44447966235
aa(lp406
F5.00468228938
aa(lp407
F5.08869467437
aa(lp408
F5.29047181891
aa(lp409
F4.92876564953
aa(lp410
F4.79722417857
aa(lp411
F6.39963244208
aa(lp412
F4.01189331368
aa(lp413
F1.99379112534
aa(lp414
F6.81231648461
aa(lp415
F4.84345523075
aa(lp416
F6.43032150235
aa(lp417
F6.00989121237
aa(lp418
F4.60499923417
aa(lp419
F5.6135759456
aa(lp420
F6.71399994035
aa(lp421
F6.68607267993
aa(lp422
F3.89919070821
aa(lp423
F5.03687572607
aa(lp424
F1.75403765057
aa(lp425
F6.34723647593
aa(lp426
F6.86600993091
aa(lp427
F5.36973153931
aa(lp428
F4.86635059161
aa(lp429
F4.84508917672
aa(lp430
F4.26461355866
aa(lp431
F5.96354937834
aa(lp432
F5.31832089275
aa(lp433
F5.33225678269
aa(lp434
F5.06286084822
aa(lp435
F1.59976565867
aa(lp436
F5.65098692382
aa(lp437
F5.72530176771
aa(lp438
F4.40738070089
aa(lp439
F5.43235136689
aa(lp440
F6.04681230916
aa(lp441
F3.89114217225
aa(lp442
F5.11777413872
aa(lp443
F5.11792376737
aa(lp444
F6.01381881733
aa(lp445
F7.50871433817
aa(lp446
F1.83134033983
aa(lp447
F1.70950997417
aa(lp448
F1.33620261762
aa(lp449
F1.09576933194
aa(lp450
F1.76608705285
aa(lp451
F1.10907962301
aa(lp452
F1.69285193751
aa(lp453
F1.93215970008
aa(lp454
F1.55132584142
aa(lp455
F1.22722791833
aa(lp456
F2.16014105481
aa(lp457
F1.82572324267
aa(lp458
F1.54575766859
aa(lp459
F1.29172194692
aa(lp460
F1.1393339525
aa(lp461
F1.32207975899
aa(lp462
F1.90364607147
aa(lp463
F1.48659747874
aa(lp464
F2.13369147336
aa(lp465
F1.92816524725
aa(lp466
F1.66863503175
aa(lp467
F1.72366834602
aa(lp468
F1.31118408373
aa(lp469
F1.67261833175
aa(lp470
F1.22670155628
aa(lp471
F1.51850771431
aa(lp472
F2.02436807313
aa(lp473
F1.26774915708
aa(lp474
F2.00199054168
aa(lp475
F1.82539465013
aa(lp476
F1.67473866571
aa(lp477
F1.55352676546
aa(lp478
F2.06279515236
aa(lp479
F2.26099900864
aa(lp480
F1.10077533616
aa(lp481
F1.17245474586
aa(lp482
F0.76586435796
aa(lp483
F1.97538226522
aa(lp484
F1.69067883182
aa(lp485
F1.62071737911
aa(lp486
F1.6369047002
aa(lp487
F2.20825218851
aa(lp488
F1.31528206046
aa(lp489
F2.08583145831
aa(lp490
F1.75108059347
aa(lp491
F1.52776783493
aa(lp492
F1.76568831253
aa(lp493
F1.38715597707
aa(lp494
F1.7300216752
aa(lp495
F1.64256582794
aa(lp496
F2.15111582671
aa(lp497
F1.76404989646
aa(lp498
F2.19338807875
aa(lp499
F1.52070029714
aa(lp500
F1.15155920888
aa.