(lp0
(F2.65687233272
F-1.44456196938
tp1
a(F2.02292232492
F-1.34844063014
tp2
a(F1.9275479436
F-1.80985667395
tp3
a(F3.86392923054
F-2.7609265457
tp4
a(F3.57051046861
F-0.941162375888
tp5
a(F4.40023622424
F-1.1785755491
tp6
a(F3.05452969292
F-1.48879175525
tp7
a(F4.71356885423
F-0.758643961438
tp8
a(F4.22244519768
F-1.21546348174
tp9
a(F4.33156163876
F-1.24818142633
tp10
a(F2.2788632476
F-1.85305063733
tp11
a(F2.75179418601
F-1.80473450251
tp12
a(F4.00962739709
F-1.72265286827
tp13
a(F2.14388206937
F-1.86470788663
tp14
a(F3.94297116364
F-0.756702063351
tp15
a(F3.54063408711
F-1.0380112848
tp16
a(F3.17749876203
F-1.06918859072
tp17
a(F3.37495459952
F-0.898636360896
tp18
a(F3.79722332203
F-1.63729567276
tp19
a(F4.15840090091
F-0.579387044328
tp20
a(F4.31673738149
F-1.36257423455
tp21
a(F2.86481584607
F-2.56876752715
tp22
a(F3.66303098523
F-0.420158539939
tp23
a(F3.6203565585
F-2.06101880687
tp24
a(F1.8913233709
F-1.31063639155
tp25
a(F3.42690694432
F-1.15607433034
tp26
a(F3.44755943113
F-0.968211642838
tp27
a(F2.929359428
F-1.44126981658
tp28
a(F4.57704760759
F-2.19941230454
tp29
a(F3.89721227339
F-1.23274267166
tp30
a(F3.46615256569
F-1.71818041983
tp31
a(F3.48961610954
F-1.68230647587
tp32
a(F3.72823013689
F-1.55490404058
tp33
a(F4.23540498501
F-1.57952875457
tp34
a(F4.65916395987
F-0.0810292130509
tp35
a(F0.515723130463
F-1.25698604848
tp36
a(F4.56782676357
F-1.31664744726
tp37
a(F3.30428218192
F-1.11074744469
tp38
a(F4.16292655788
F-1.48311380649
tp39
a(F4.78044451779
F-1.96169584507
tp40
a(F4.62652612737
F-1.66241419424
tp41
a(F3.0887038574
F-1.41553653694
tp42
a(F3.38842282317
F-1.55466023285
tp43
a(F3.80769648824
F-2.52860111333
tp44
a(F3.3750937608
F-1.26656650277
tp45
a(F3.88234972237
F-0.749141837967
tp46
a(F2.00438474222
F-1.30223989727
tp47
a(F3.11226375686
F-1.27983925427
tp48
a(F4.15494717504
F-1.59523292657
tp49
a(F3.2374335984
F-2.23705740971
tp50
a(F3.49854089896
F-1.60045187504
tp51
a(F3.87838797069
F-1.34879578911
tp52
a(F4.4770456614
F-0.540420452665
tp53
a(F4.24851994908
F-1.80586680993
tp54
a(F3.57546202759
F-1.74850716066
tp55
a(F2.22383833577
F-1.76083411444
tp56
a(F2.46673720716
F-2.17415534222
tp57
a(F1.25616608548
F-2.3026146917
tp58
a(F2.61152942438
F-1.20704870836
tp59
a(F3.31252258577
F-1.53257419921
tp60
a(F3.46548722261
F-0.851121902282
tp61
a(F4.03856342314
F-0.810060036095
tp62
a(F4.20556474219
F-1.54193932344
tp63
a(F5.52075461243
F-0.0698941264764
tp64
a(F4.17819197803
F-2.89554415394
tp65
a(F3.42976513593
F-0.465937720044
tp66
a(F3.82066315621
F-1.87744645942
tp67
a(F4.19913914188
F-1.76791157277
tp68
a(F1.3689526167
F-1.76223486055
tp69
a(F2.88676506555
F-1.87049624013
tp70
a(F3.80994764266
F-1.35535520011
tp71
a(F4.7505382517
F-2.91999913398
tp72
a(F2.48634403367
F-1.03203444367
tp73
a(F2.50699713858
F-1.47956661693
tp74
a(F2.4179366311
F-1.71068318401
tp75
a(F4.37188068838
F-0.826663825343
tp76
a(F3.74436978034
F-1.08070725142
tp77
a(F2.39938580877
F-1.54017894955
tp78
a(F2.65901506477
F-1.69196111719
tp79
a(F1.69492917075
F-2.0403624675
tp80
a(F3.9772530452
F-0.388206876691
tp81
a(F3.27203338219
F-1.72585664751
tp82
a(F4.65294300855
F-1.13633488465
tp83
a(F4.53800017241
F-1.39874140231
tp84
a(F3.73942482812
F-1.56677006118
tp85
a(F3.88156877791
F-2.06093531126
tp86
a(F3.14303296357
F-1.12903653034
tp87
a(F4.24362730944
F-1.47640739018
tp88
a(F4.62970633768
F-1.33770850345
tp89
a(F3.83299657069
F-1.81875275787
tp90
a(F2.12071129732
F-1.62727825515
tp91
a(F3.01924447066
F-2.28253614849
tp92
a(F4.25991514227
F-1.15483399045
tp93
a(F4.34552386001
F-0.93064029641
tp94
a(F3.41657692612
F-1.28558729744
tp95
a(F4.17973749596
F-0.422096290178
tp96
a(F4.47942678938
F-2.64590654783
tp97
a(F2.51795810234
F-1.16177382845
tp98
a(F4.4061103654
F-1.76237907711
tp99
a(F3.98132496043
F-1.42924765408
tp100
a(F5.57753207746
F-1.00483385467
tp101
a(F1.73633253457
F-1.17253673206
tp102
a(F3.72007227125
F-0.621137469293
tp103
a(F4.41311878447
F-2.1782161903
tp104
a(F2.14481285384
F-1.34588987788
tp105
a(F2.96172310778
F-1.62535619226
tp106
a(F2.29962334101
F-0.855945673327
tp107
a(F2.77723540756
F-1.20777577277
tp108
a(F4.01808313668
F-1.68111834924
tp109
a(F2.55063279423
F-2.05008485627
tp110
a(F3.4294453623
F-1.55124285668
tp111
a(F4.8525371037
F-1.49312694594
tp112
a(F1.67344996667
F-0.955604788051
tp113
a(F2.36259907285
F-2.04853979455
tp114
a(F4.69223855134
F-0.955021074284
tp115
a(F5.28895449179
F-0.718663499375
tp116
a(F3.83515788416
F-1.51250917648
tp117
a(F5.01503285806
F-3.14296661019
tp118
a(F2.62156819168
F-0.902532832314
tp119
a(F6.96554167245
F-0.234573571612
tp120
a(F4.13429527228
F-1.283127665
tp121
a(F4.32620958766
F-0.539408363755
tp122
a(F5.82439605852
F-1.44143676357
tp123
a(F4.90118495467
F-1.32384765198
tp124
a(F0.748536677648
F-0.87495713587
tp125
a(F5.5549143367
F-1.82701373178
tp126
a(F5.34314087527
F-1.2795513367
tp127
a(F4.46827613693
F-0.780715022354
tp128
a(F5.91981527566
F-2.7177488591
tp129
a(F4.61064098108
F-0.681478541205
tp130
a(F6.16859617923
F-0.324994708771
tp131
a(F4.90739798376
F-0.376282960375
tp132
a(F5.68691437457
F-1.2068648001
tp133
a(F5.34557509201
F-0.954750854178
tp134
a(F5.39708873729
F-1.23786367388
tp135
a(F1.1108800708
F-1.55255914166
tp136
a(F6.11754434189
F-1.78526967834
tp137
a(F3.82400736253
F-1.57372496473
tp138
a(F6.57986067805
F-2.09782498882
tp139
a(F2.993339631
F-1.48338617049
tp140
a(F4.76442743942
F-1.9554055166
tp141
a(F5.72179986379
F-0.486388495291
tp142
a(F4.8836968966
F-0.898508515817
tp143
a(F3.59871674348
F-1.14145275225
tp144
a(F5.35679224135
F-1.34580606151
tp145
a(F2.93280614757
F-0.874591213311
tp146
a(F1.75283822691
F-1.12374336943
tp147
a(F6.54060329314
F-0.54271947355
tp148
a(F5.82502364612
F-2.11028889533
tp149
a(F4.89191623073
F-0.835682142026
tp150
a(F5.42085558179
F-0.63954758786
tp151
a(F6.66535611625
F-0.834667238337
tp152
a(F3.43637437899
F-1.21219587469
tp153
a(F4.05191953244
F-1.0900843951
tp154
a(F4.7113906459
F-1.7745587389
tp155
a(F5.4439907506
F0.165104395694
tp156
a(F2.91933163458
F-0.695307265016
tp157
a(F1.67985509666
F-1.59361030389
tp158
a(F5.21108504606
F-1.20304031242
tp159
a(F3.55918957502
F-0.0545773128627
tp160
a(F4.40170862019
F-1.42797539731
tp161
a(F4.14063994874
F-2.74060545367
tp162
a(F6.65486840361
F-0.9475519168
tp163
a(F5.13196521326
F-2.79904971555
tp164
a(F4.68935811193
F-0.85631471266
tp165
a(F6.09552281536
F-2.44982716056
tp166
a(F5.31035742581
F-1.97268690946
tp167
a(F6.37437962591
F-0.676719336394
tp168
a(F2.97912749176
F-1.34438467113
tp169
a(F6.17051508155
F-0.654534409419
tp170
a(F4.10667524962
F-1.68760471524
tp171
a(F4.81577349988
F-0.591930392134
tp172
a(F4.40062138399
F-1.2971662235
tp173
a(F3.88981657517
F-0.0110651398629
tp174
a(F5.17525465811
F-1.20474157718
tp175
a(F5.15558358233
F-1.71724850727
tp176
a(F3.96374022582
F-1.83684279198
tp177
a(F6.19732944991
F-1.78855481871
tp178
a(F4.59360627376
F-0.976836486297
tp179
a(F1.41513637301
F-1.67740522053
tp180
a(F4.69099235893
F-1.52797076305
tp181
a(F5.94188545763
F-0.954032663654
tp182
a(F4.94474871291
F-0.602073168016
tp183
a(F2.80758691275
F-0.544321737809
tp184
a(F4.83096251842
F-1.17465304367
tp185
a(F5.55694657214
F-0.422983812221
tp186
a(F3.66719876498
F-0.72811017991
tp187
a(F5.01979646609
F0.0402574311619
tp188
a(F4.97402521566
F-0.865531064279
tp189
a(F4.81795421422
F-1.53753566092
tp190
a(F1.97473511929
F-1.14412414104
tp191
a(F4.32564656771
F-0.406572892683
tp192
a(F4.66843920486
F-1.16689141702
tp193
a(F4.35939235641
F-0.363552755973
tp194
a(F5.34660606468
F-0.283577695537
tp195
a(F4.9070694784
F-0.52911647964
tp196
a(F6.03561413059
F-0.739239794946
tp197
a(F5.04633127468
F-1.37212755751
tp198
a(F5.07174423948
F-1.16277640297
tp199
a(F6.76102198955
F-2.1822299155
tp200
a(F2.37839320225
F-0.706088329365
tp201
a(F1.63118234646
F-1.03557978717
tp202
a(F3.7299718991
F-0.370602113197
tp203
a(F6.06293851302
F-1.91063518599
tp204
a(F5.09784305414
F-1.35090642145
tp205
a(F5.59366872823
F-1.34634490195
tp206
a(F4.54687003383
F-1.98839283177
tp207
a(F4.18598164895
F-0.818257364033
tp208
a(F4.95942496056
F-1.01416666748
tp209
a(F5.37604522064
F-1.25079895908
tp210
a(F3.75170549098
F-1.01568859046
tp211
a(F4.36671439422
F-1.60317762288
tp212
a(F1.49851798074
F-1.76987867399
tp213
a(F6.04764572459
F-0.252060256465
tp214
a(F5.24521310759
F-1.45942216318
tp215
a(F5.43043020174
F-1.16254623758
tp216
a(F5.23966461283
F-1.27880509673
tp217
a(F5.8515841347
F-0.490418068136
tp218
a(F5.73695077511
F-1.56208261567
tp219
a(F4.7534755428
F-2.11694769397
tp220
a(F4.06389439358
F-1.70061176776
tp221
a(F2.86749784429
F-0.759194768833
tp222
a(F5.36331712877
F-0.164309844808
tp223
a(F2.11340738985
F-1.14568371066
tp224
a(F0.728154407684
F-1.17245898046
tp225
a(F4.48408587287
F0.245242480538
tp226
a(F5.34957126389
F-0.0171347454849
tp227
a(F4.47575653868
F-0.615711989788
tp228
a(F5.31613630136
F0.648521738383
tp229
a(F5.46040320931
F0.254915306962
tp230
a(F6.14639660479
F-1.00701304515
tp231
a(F7.69272699806
F-1.9626119514
tp232
a(F3.41326735267
F0.335017375162
tp233
a(F5.02761233477
F-1.34235324408
tp234
a(F5.3909338812
F0.196089495222
tp235
a(F1.55881052298
F-2.35347925491
tp236
a(F5.87250154513
F-0.405819635799
tp237
a(F4.9184984024
F1.36496474294
tp238
a(F6.1907275034
F-0.52815081154
tp239
a(F5.48176529874
F-1.12178972796
tp240
a(F4.62267808806
F-0.333353003191
tp241
a(F5.68589770669
F0.0577742704649
tp242
a(F5.06592235088
F0.713554120027
tp243
a(F5.82867960762
F-0.794276217084
tp244
a(F6.55423601629
F0.160838236132
tp245
a(F6.64654482839
F-1.30504099968
tp246
a(F1.78219825139
F-1.45738064382
tp247
a(F4.95829856386
F-0.499928370407
tp248
a(F4.77889333755
F-0.000912145810486
tp249
a(F5.40016234388
F0.246244895655
tp250
a(F5.37259730072
F0.198408937476
tp251
a(F6.78067324469
F-1.36857097707
tp252
a(F4.42428605523
F-0.133648247873
tp253
a(F6.21088959125
F0.228568024054
tp254
a(F4.6715145961
F0.684879874967
tp255
a(F5.9746624046
F-0.054708843207
tp256
a(F3.45358968138
F-0.24715869247
tp257
a(F1.44117121639
F-1.34985791103
tp258
a(F5.41104266439
F0.0508225566022
tp259
a(F6.72667302592
F0.152581772637
tp260
a(F4.39123920956
F0.726511855336
tp261
a(F5.76723534937
F-1.36561493008
tp262
a(F5.8305003622
F-0.587194906508
tp263
a(F5.26984516306
F0.0895887203222
tp264
a(F4.64225615905
F-0.327460972832
tp265
a(F5.67542731524
F0.518155595558
tp266
a(F6.00791132918
F-0.0492280428826
tp267
a(F4.78570029122
F-0.0330612791285
tp268
a(F2.08758084118
F-0.805391884535
tp269
a(F4.95607787605
F-0.357958159608
tp270
a(F6.22635990846
F-0.495651836846
tp271
a(F6.76915195073
F0.126937129906
tp272
a(F5.40051735815
F0.643782330823
tp273
a(F5.54805458543
F0.175171073147
tp274
a(F4.11408285848
F0.940544134752
tp275
a(F7.24287609305
F-0.974191163404
tp276
a(F4.90002041026
F-0.846397581784
tp277
a(F4.61153678256
F-0.285650543769
tp278
a(F6.75052636302
F-0.523952981046
tp279
a(F2.31163160953
F-2.01708602912
tp280
a(F7.11345417157
F1.73229606804
tp281
a(F5.84977904308
F-1.06110494787
tp282
a(F5.07854088015
F-0.887053586844
tp283
a(F7.13943570015
F-0.948578747498
tp284
a(F5.38700297852
F-0.257911140988
tp285
a(F4.44843649631
F-0.398162803392
tp286
a(F5.72392477798
F-0.141910154385
tp287
a(F5.14640619218
F-2.90484228243
tp288
a(F5.73234343105
F-0.147658524777
tp289
a(F4.43873606714
F0.0948708963643
tp290
a(F1.64697269963
F-1.94611743428
tp291
a(F5.19483351265
F-0.860749419732
tp292
a(F6.60634947388
F0.101442533869
tp293
a(F7.27720103094
F-0.749914814045
tp294
a(F3.95402539915
F-0.336704213305
tp295
a(F6.34192078529
F-0.220959620826
tp296
a(F7.11798877675
F-0.16800946778
tp297
a(F4.68172259573
F-1.08826928242
tp298
a(F6.20208096925
F0.0295891485487
tp299
a(F4.56833860381
F-0.170792592029
tp300
a(F5.01684337288
F-0.616847056509
tp301
a(F1.75872868728
F-1.51012792322
tp302
a(F7.00679947816
F-1.54961614826
tp303
a(F5.61637301553
F-0.1706016311
tp304
a(F7.36902302239
F-0.337187381981
tp305
a(F8.64458277995
F-1.36928983077
tp306
a(F5.79632171035
F-0.765454717029
tp307
a(F6.11639389909
F-0.237151175286
tp308
a(F3.96214759103
F-0.414545553018
tp309
a(F5.10846690796
F-0.364951678382
tp310
a(F5.78765131567
F-0.727989491358
tp311
a(F4.2482075474
F-0.374384403169
tp312
a(F1.44578581434
F-1.19359583416
tp313
a(F4.09966660199
F-0.959981037343
tp314
a(F5.26176097463
F-1.30393314912
tp315
a(F3.92165206668
F0.165519043812
tp316
a(F7.12332253264
F-0.531537324389
tp317
a(F4.91614844854
F-0.436500877535
tp318
a(F4.99459460381
F-0.538046545046
tp319
a(F4.82981074998
F0.158175447445
tp320
a(F4.50664909583
F-0.403311321587
tp321
a(F4.15209280734
F-0.334806715564
tp322
a(F4.61285408344
F-0.0342816968628
tp323
a(F2.02786712114
F-2.11273638272
tp324
a(F5.16685883341
F0.580909797856
tp325
a(F5.30822989053
F0.311623777258
tp326
a(F7.25373284624
F-2.33998968583
tp327
a(F5.11154100279
F-0.37816929792
tp328
a(F4.61867832123
F0.548647158622
tp329
a(F4.45772980543
F-0.215906059841
tp330
a(F6.34717286032
F-1.96339149224
tp331
a(F4.5862169994
F0.24915916362
tp332
a(F5.25177871157
F-0.238783726824
tp333
a(F4.78103392534
F0.715171245348
tp334
a(F2.52034108788
F-1.64267860412
tp335
a(F2.52239474696
F-1.2302589634
tp336
a(F1.88869439143
F-1.47829762049
tp337
a(F1.87034543058
F-0.754727525884
tp338
a(F2.14910531093
F-1.1610844938
tp339
a(F2.09652777296
F-2.19377885629
tp340
a(F1.97117122489
F-1.33571457304
tp341
a(F1.52885912943
F-1.23556225411
tp342
a(F3.05070844796
F-2.94297859634
tp343
a(F1.16226076281
F-1.57528401349
tp344
a(F1.73733818384
F-1.04322062606
tp345
a(F1.53038437548
F-1.08794876935
tp346
a(F2.16274901342
F-1.25882775201
tp347
a(F1.32557457604
F-1.86619005461
tp348
a(F1.57403192512
F-1.62261379503
tp349
a(F1.46467410985
F-1.62877786545
tp350
a(F2.53793128126
F-1.85589708973
tp351
a(F0.514047370239
F-1.34235148058
tp352
a(F1.62213770911
F-1.2162406654
tp353
a(F2.29218123765
F-1.9270703039
tp354
a(F1.29258646033
F-1.63361786698
tp355
a(F2.24101415721
F-1.23219207424
tp356
a(F1.34584655959
F-1.6984440458
tp357
a(F1.84080072674
F-1.46588109035
tp358
a(F2.47139821446
F-1.54780579002
tp359
a(F1.67364503625
F-1.73075844373
tp360
a(F1.51794647883
F-1.2559877683
tp361
a(F2.16853832287
F-2.56383203744
tp362
a(F2.09726797538
F-1.06076577868
tp363
a(F1.97166935253
F-2.66420382707
tp364
a(F1.43685259474
F-0.735867242587
tp365
a(F3.42370154502
F-0.810430174446
tp366
a(F3.07316432697
F-1.45679840487
tp367
a(F1.0912872621
F-1.43666845212
tp368
a(F2.32597180398
F-1.46564749296
tp369
a(F1.71994962199
F-0.880989462333
tp370
a(F1.89246787435
F-1.31987403056
tp371
a(F1.97068733027
F-1.84613200361
tp372
a(F1.06083077694
F-1.33078458756
tp373
a(F2.05371630332
F-1.68985089391
tp374
a(F0.807160156079
F-2.33442309403
tp375
a(F0.711279402
F-1.16512309891
tp376
a(F1.84029767024
F-1.60200137928
tp377
a(F1.13803633209
F-2.32834406297
tp378
a(F2.25047778078
F-1.48742967038
tp379
a(F0.891705605281
F-2.06587109111
tp380
a(F1.51438772779
F-1.84450068213
tp381
a(F1.929312333
F-1.17437700503
tp382
a(F2.16127658174
F-1.72879710336
tp383
a(F1.6698811887
F-1.90499863333
tp384
a(F1.06763650527
F-1.38912744154
tp385
a(F1.06699436548
F-1.69010288672
tp386
a(F1.49088233195
F-1.44237545671
tp387
a(F2.17817499486
F-1.07523270924
tp388
a(F1.58408770136
F-1.54880994613
tp389
a(F1.8303555633
F-1.10466658253
tp390
a(F2.22574120901
F-1.3109058517
tp391
a(F1.75874604674
F-1.50778369619
tp392
a(F0.796456427774
F-1.51675306074
tp393
a(F2.53573046824
F-0.0974174133555
tp394
a(F2.41883173753
F-0.928391966414
tp395
a(F1.4875779175
F-0.941907173481
tp396
a(F2.93328174246
F-0.838107953107
tp397
a(F1.10499192889
F-1.48975430051
tp398
a(F1.99161681673
F-1.98578802633
tp399
a(F2.55225428916
F-2.2412581029
tp400
a.