(lp0
(F0.959880840682
F1.39554445571
tp1
a(F1.11117795633
F1.5519586616
tp2
a(F0.91882672196
F1.29968854253
tp3
a(F2.95506089229
F2.94435985092
tp4
a(F3.51462824889
F3.5386404752
tp5
a(F2.4554859352
F2.56548852418
tp6
a(F2.46150160669
F2.51575417595
tp7
a(F3.30934759924
F3.3029362694
tp8
a(F3.10494078299
F3.06573466529
tp9
a(F3.16000790613
F2.89717076741
tp10
a(F3.9085532285
F3.51156523205
tp11
a(F3.7783512861
F3.43042494095
tp12
a(F3.35702684994
F3.4772100586
tp13
a(F1.83433317955
F2.16305954884
tp14
a(F3.1601267091
F3.15226008335
tp15
a(F3.25807934184
F3.10567233838
tp16
a(F2.86156748694
F2.91265752468
tp17
a(F3.20884621301
F3.08630161942
tp18
a(F3.27889795206
F3.29674504989
tp19
a(F2.45358101744
F2.44220452537
tp20
a(F3.83825532499
F3.4323518722
tp21
a(F3.29991233468
F3.03763307351
tp22
a(F3.78355294483
F3.74056733465
tp23
a(F3.03856400305
F3.08335065578
tp24
a(F0.416225904399
F0.94449814085
tp25
a(F2.31088110125
F2.35052893705
tp26
a(F2.94873893895
F2.97863373421
tp27
a(F3.68978265897
F3.59762255524
tp28
a(F3.25369969134
F3.21222574075
tp29
a(F3.34670852887
F3.06181475406
tp30
a(F3.53606412264
F3.44918387207
tp31
a(F2.91235736082
F2.82040895614
tp32
a(F3.90895094619
F3.77309313325
tp33
a(F2.68687845208
F2.70643726049
tp34
a(F2.18204806928
F2.32000227844
tp35
a(F1.5077731394
F1.81595879757
tp36
a(F3.63465280767
F3.87319689855
tp37
a(F2.70337779809
F2.68861327253
tp38
a(F3.42776882088
F3.30568582039
tp39
a(F3.82946756251
F3.34172809293
tp40
a(F3.0479313102
F2.84134839171
tp41
a(F4.57426941461
F4.12629720161
tp42
a(F3.48115024865
F3.31610966065
tp43
a(F3.77231690945
F3.51002561275
tp44
a(F3.0415778914
F3.31853892015
tp45
a(F3.19737830035
F3.32939903257
tp46
a(F1.78129776946
F1.90130853908
tp47
a(F3.33840939254
F3.22620255482
tp48
a(F3.17118675021
F3.18082993993
tp49
a(F2.28644886974
F2.17628922747
tp50
a(F3.30049435258
F3.08243319198
tp51
a(F3.88251088056
F3.78733342563
tp52
a(F3.54836300623
F3.47284756286
tp53
a(F3.32076001946
F2.87812646378
tp54
a(F3.24361470366
F3.35613646508
tp55
a(F3.41793362609
F3.50410611394
tp56
a(F3.11745005557
F2.94253435119
tp57
a(F1.03429334775
F1.39084618867
tp58
a(F2.61907985183
F2.69777594335
tp59
a(F3.07003585394
F2.93956531472
tp60
a(F4.19872989914
F4.00947441147
tp61
a(F2.88250843018
F2.99475349689
tp62
a(F3.30175096556
F3.23750515098
tp63
a(F2.81961555271
F2.81191858724
tp64
a(F4.0817807467
F3.34439934398
tp65
a(F2.16227511494
F2.4018212393
tp66
a(F3.87393143466
F3.68098786423
tp67
a(F3.39127373953
F3.10961367854
tp68
a(F1.48439010482
F1.77297662715
tp69
a(F2.39411526387
F2.61745401191
tp70
a(F4.39536148247
F4.04482208264
tp71
a(F3.80338943688
F3.78998937874
tp72
a(F2.41161788505
F2.55073433226
tp73
a(F3.60646993666
F3.54847944394
tp74
a(F3.10165479439
F3.2025157336
tp75
a(F2.97477202001
F3.18614919977
tp76
a(F2.96298513144
F2.77060964639
tp77
a(F3.49439849114
F3.42133182435
tp78
a(F3.76117450567
F3.4925437829
tp79
a(F1.06404185294
F1.48775982784
tp80
a(F1.96591831894
F2.2748302576
tp81
a(F3.29886973968
F3.3096183232
tp82
a(F5.15198318671
F4.29792794041
tp83
a(F2.91577365559
F3.15948068292
tp84
a(F4.05756028251
F3.88022874717
tp85
a(F3.21900022916
F2.88286510933
tp86
a(F4.22893807364
F3.92454264829
tp87
a(F2.71463181609
F2.64752624616
tp88
a(F3.05890090032
F2.86599785869
tp89
a(F3.22786894317
F3.13837373871
tp90
a(F0.993151660961
F1.57107418727
tp91
a(F3.41741220144
F3.35639754707
tp92
a(F2.93516440889
F3.03026533625
tp93
a(F3.03496311811
F2.9449006937
tp94
a(F3.8805741774
F3.50522394643
tp95
a(F3.17988392804
F3.30438062175
tp96
a(F3.47117993289
F3.15500233447
tp97
a(F4.60982889531
F3.8648753072
tp98
a(F3.27160924772
F3.31283244655
tp99
a(F2.70481459946
F2.69334906218
tp100
a(F3.49001032122
F3.25943805194
tp101
a(F2.18287343512
F2.24736000222
tp102
a(F4.90541915809
F4.53367670931
tp103
a(F3.72940849891
F3.27767460639
tp104
a(F3.31682000718
F3.12984025937
tp105
a(F2.36849234684
F2.29001213768
tp106
a(F2.88510501212
F2.88091283295
tp107
a(F2.27474329251
F2.57279486579
tp108
a(F2.16154181662
F2.2823990939
tp109
a(F3.37516417581
F3.47159510356
tp110
a(F2.96805980195
F3.00132614276
tp111
a(F3.62608071329
F3.68747066898
tp112
a(F0.710887707574
F1.14039003196
tp113
a(F1.73366124736
F2.06953299261
tp114
a(F4.25048036213
F3.94303824112
tp115
a(F4.75414192504
F4.42875827517
tp116
a(F4.76549347597
F4.23685787972
tp117
a(F5.38321794868
F4.67063896788
tp118
a(F3.68994310988
F3.56105156907
tp119
a(F4.82276178115
F4.79769449413
tp120
a(F3.70694977132
F3.56851301509
tp121
a(F4.05415552479
F3.8210225953
tp122
a(F4.92454240009
F4.38926088882
tp123
a(F4.61646159591
F4.20047932487
tp124
a(F1.32147713454
F1.68278964999
tp125
a(F4.70057076105
F4.33132951371
tp126
a(F4.93298708961
F4.71480748078
tp127
a(F5.20408450355
F4.57070134152
tp128
a(F3.9611897242
F3.67160859905
tp129
a(F4.25703394256
F3.9281938321
tp130
a(F4.48937359614
F4.59546332189
tp131
a(F4.18656389743
F3.94975933185
tp132
a(F4.83194328574
F4.19297652447
tp133
a(F4.3244469103
F3.87325344467
tp134
a(F3.8691133937
F3.76346184601
tp135
a(F1.75537273794
F1.87059223952
tp136
a(F5.52936891262
F4.86490063191
tp137
a(F5.40003919455
F4.81704379109
tp138
a(F3.95295113608
F3.7753541174
tp139
a(F4.3392503688
F4.00128385943
tp140
a(F4.1284552492
F3.5858968006
tp141
a(F5.02481879357
F4.33947839252
tp142
a(F4.74979103426
F4.29677663465
tp143
a(F4.54146512243
F4.40660259716
tp144
a(F3.33336874645
F3.31656970196
tp145
a(F4.60815299767
F4.41646342114
tp146
a(F0.910700592013
F1.37158713724
tp147
a(F5.39638419029
F4.88650680547
tp148
a(F4.05969196882
F3.59432924159
tp149
a(F5.11677985189
F4.75732779569
tp150
a(F4.26986250598
F3.77974167305
tp151
a(F5.0987468134
F4.77174873728
tp152
a(F5.37905442068
F4.78210974672
tp153
a(F4.38593952809
F4.07289386983
tp154
a(F4.25587672296
F3.99404725786
tp155
a(F4.81166430234
F4.4780056372
tp156
a(F3.87917147513
F3.4564176077
tp157
a(F0.79900766165
F1.34835973589
tp158
a(F4.82108072558
F4.47532167479
tp159
a(F4.41133532181
F4.14960099356
tp160
a(F3.8494040254
F3.81804401662
tp161
a(F5.0124476324
F4.60676838171
tp162
a(F4.39369580893
F4.04641003772
tp163
a(F4.82972199255
F4.24701612226
tp164
a(F4.24652505832
F4.09216390546
tp165
a(F6.02989485542
F5.1249119862
tp166
a(F3.77536774094
F3.52146182628
tp167
a(F3.98863000995
F4.12379990096
tp168
a(F1.57829537417
F1.81570977068
tp169
a(F4.970296015
F4.59234412769
tp170
a(F4.56050393461
F4.11323286428
tp171
a(F5.13885820703
F4.53049454417
tp172
a(F3.98110396861
F3.85268647719
tp173
a(F5.20479138343
F4.97889161524
tp174
a(F5.07230182856
F4.6745182006
tp175
a(F4.65454214085
F4.18335345734
tp176
a(F5.18914398827
F4.67601290027
tp177
a(F4.64414131826
F4.21084719351
tp178
a(F5.37905781177
F4.64547323074
tp179
a(F1.74041649262
F1.95017688911
tp180
a(F4.71368293699
F4.27543038077
tp181
a(F5.25819921437
F4.95484536389
tp182
a(F4.36160686346
F3.92948993842
tp183
a(F4.18114007163
F3.82197146393
tp184
a(F3.84759040202
F3.79000749856
tp185
a(F4.66649039221
F4.32552569631
tp186
a(F5.44054260996
F4.68353406257
tp187
a(F3.62261277767
F3.40649234295
tp188
a(F3.91316873501
F3.68307331165
tp189
a(F4.73770561358
F4.22756554569
tp190
a(F0.847416881134
F1.22997588995
tp191
a(F5.18530717639
F4.94596389257
tp192
a(F3.77908275762
F3.55493060487
tp193
a(F4.70882032796
F4.23523619134
tp194
a(F4.62414044453
F4.24138812323
tp195
a(F4.70477223562
F4.3854828563
tp196
a(F4.05981069531
F3.63203263235
tp197
a(F3.93090741706
F3.66112935208
tp198
a(F4.76997770463
F4.26644061601
tp199
a(F2.84377092589
F2.88999589781
tp200
a(F4.81166163459
F4.28370365913
tp201
a(F1.82111203603
F2.13204717184
tp202
a(F4.35315949751
F3.97372574177
tp203
a(F5.32522851444
F4.52398859007
tp204
a(F4.4178666504
F4.02990193131
tp205
a(F4.54473579594
F4.26866593316
tp206
a(F4.37720626934
F4.39504667057
tp207
a(F4.53980135067
F4.2883884029
tp208
a(F4.93212858583
F4.42604355321
tp209
a(F4.28115721018
F3.94417396778
tp210
a(F3.20656877859
F3.38270041848
tp211
a(F3.91434330086
F3.86299403414
tp212
a(F1.79461956185
F2.03608775839
tp213
a(F5.47506753172
F4.8376032893
tp214
a(F5.00240023611
F4.34268497581
tp215
a(F3.69948051846
F3.61640411274
tp216
a(F3.02868316731
F3.06815540185
tp217
a(F5.13582012219
F4.75490234215
tp218
a(F4.39432539725
F3.92916052533
tp219
a(F5.19857281902
F4.61821901314
tp220
a(F3.96454513056
F3.66005404483
tp221
a(F3.61510219091
F3.44621073208
tp222
a(F3.17695516158
F3.05210179316
tp223
a(F0.622420893399
F1.2034576858
tp224
a(F0.842538277155
F1.40302643973
tp225
a(F5.44774714122
F5.00471896015
tp226
a(F4.08162823758
F4.03440544114
tp227
a(F4.24580354594
F3.99011637753
tp228
a(F4.77508598245
F4.40785671718
tp229
a(F5.11149821242
F4.74938610578
tp230
a(F5.14841136412
F4.53045974279
tp231
a(F5.93286173748
F5.30925781252
tp232
a(F5.43959642405
F4.92131529244
tp233
a(F7.42526038642
F6.49468757274
tp234
a(F5.6793757341
F5.10749367653
tp235
a(F2.25538613508
F2.31874923856
tp236
a(F5.53630765234
F5.00351628793
tp237
a(F5.5831900838
F5.06080430205
tp238
a(F5.26539609358
F4.9500835198
tp239
a(F5.51322655003
F4.93034688979
tp240
a(F4.21106310468
F3.91914540698
tp241
a(F5.29945707745
F5.01870843082
tp242
a(F4.63109647557
F4.15980697653
tp243
a(F5.85817671243
F5.12376904885
tp244
a(F4.88081404856
F4.58453422946
tp245
a(F6.21691553281
F5.28945208926
tp246
a(F1.17391114384
F1.50905397833
tp247
a(F4.88821211723
F4.22964456837
tp248
a(F4.50790926951
F4.22747902721
tp249
a(F4.1498686438
F3.81658427025
tp250
a(F4.55428818952
F4.2903892766
tp251
a(F4.10681874091
F3.99105535271
tp252
a(F5.85285755653
F5.13507402479
tp253
a(F4.99142903773
F4.4754782228
tp254
a(F5.68181631233
F5.10983217012
tp255
a(F6.04480514351
F5.5432994852
tp256
a(F5.45555631743
F4.89477069877
tp257
a(F0.465132634802
F1.00260086872
tp258
a(F4.59428959366
F4.31150109764
tp259
a(F3.6552009628
F3.60104566593
tp260
a(F4.63292192465
F4.5367150428
tp261
a(F5.63545026015
F5.04355972585
tp262
a(F4.19825244879
F4.05216805141
tp263
a(F5.62988142815
F4.96575777115
tp264
a(F5.59078044909
F5.07250174976
tp265
a(F4.45158651726
F4.23469316759
tp266
a(F4.4485219085
F4.12248008004
tp267
a(F4.69077580866
F4.53074518768
tp268
a(F2.23879062736
F2.41018527331
tp269
a(F4.63782766133
F4.46060417889
tp270
a(F5.5931666135
F5.05845992795
tp271
a(F5.43833322888
F5.03799738889
tp272
a(F5.54015343794
F5.07146881749
tp273
a(F5.54094968607
F5.16651046976
tp274
a(F6.04286236563
F5.20389766759
tp275
a(F5.30097611592
F5.0247977185
tp276
a(F5.37738457538
F4.82314795264
tp277
a(F3.63352142613
F3.62560386268
tp278
a(F5.44552304005
F4.98301442383
tp279
a(F1.33540387085
F1.72664570331
tp280
a(F6.15347137129
F5.47951043346
tp281
a(F3.90921595268
F3.83177132617
tp282
a(F5.08957781791
F4.51984748095
tp283
a(F5.30164234883
F4.96088232684
tp284
a(F5.93984259895
F5.45449384826
tp285
a(F6.48716558555
F5.78524147155
tp286
a(F5.20158414575
F5.00242852379
tp287
a(F6.48101245692
F5.91719251254
tp288
a(F5.17622604847
F4.67669324858
tp289
a(F4.14184545839
F3.82037698575
tp290
a(F1.92285992891
F2.31321712822
tp291
a(F5.44336948486
F5.14305673542
tp292
a(F5.40860102064
F4.97935324316
tp293
a(F4.91508797031
F4.37950183744
tp294
a(F4.94930777735
F4.54548039833
tp295
a(F6.1789448804
F5.66480279758
tp296
a(F6.10354746718
F5.4848346402
tp297
a(F5.36501890035
F4.9707115874
tp298
a(F6.1646860971
F5.43648735194
tp299
a(F4.54349789529
F4.29258621232
tp300
a(F4.95244389495
F4.41484456437
tp301
a(F1.20125184627
F1.64360144735
tp302
a(F5.41605846427
F4.83128706053
tp303
a(F5.77077625843
F5.19258565028
tp304
a(F5.94186867869
F5.47194827444
tp305
a(F5.09650551019
F4.80513729795
tp306
a(F5.45766187567
F4.96985445296
tp307
a(F5.38976516859
F4.85987406956
tp308
a(F5.58470836547
F4.94786078842
tp309
a(F5.37674638118
F4.74177518326
tp310
a(F4.10817154164
F4.1910301006
tp311
a(F6.07645832181
F5.5439409028
tp312
a(F1.25250475474
F1.76176173066
tp313
a(F5.6482717258
F5.14261944612
tp314
a(F4.57082101935
F4.15449736966
tp315
a(F5.02455181297
F4.54181006155
tp316
a(F4.86934128554
F4.51221029523
tp317
a(F3.88136827504
F3.83835463309
tp318
a(F4.81860496399
F4.42466990076
tp319
a(F4.84858844759
F4.56928667444
tp320
a(F4.97587523267
F4.48969407744
tp321
a(F6.36560359046
F5.41351507707
tp322
a(F5.02743936616
F4.59496873865
tp323
a(F0.637072176949
F1.1039839522
tp324
a(F5.33648956324
F5.28055447454
tp325
a(F4.88825335697
F4.33614021441
tp326
a(F5.10997201929
F4.91142576686
tp327
a(F5.37550230962
F4.79685785138
tp328
a(F6.75523290269
F5.85509376276
tp329
a(F6.08208327989
F5.2077056726
tp330
a(F5.05253695234
F4.86211342989
tp331
a(F5.681714089
F4.88664175973
tp332
a(F5.14376194637
F4.94312465261
tp333
a(F4.87321634819
F4.5564547023
tp334
a(F0.934901630817
F1.31698890308
tp335
a(F0.874609002457
F1.52710335782
tp336
a(F5.68157739343
F5.18015100312
tp337
a(F5.66075341919
F4.94922760289
tp338
a(F6.96368533309
F6.47614705269
tp339
a(F4.53092743547
F4.35000657868
tp340
a(F6.6903329436
F5.95503327694
tp341
a(F4.16634090559
F4.1799538843
tp342
a(F6.3537293439
F5.71948561456
tp343
a(F6.6982062487
F6.22668285111
tp344
a(F4.36962845379
F4.43932455927
tp345
a(F5.17210853657
F5.29184628241
tp346
a(F0.902671073872
F1.38496733658
tp347
a(F4.16571503001
F4.02111613173
tp348
a(F6.85597334048
F6.18872045003
tp349
a(F4.48262668047
F4.30608953332
tp350
a(F6.14439185684
F5.6294108197
tp351
a(F6.51153871658
F5.77830972359
tp352
a(F7.2213479272
F6.17426268414
tp353
a(F6.7192286009
F5.9839849248
tp354
a(F6.3174265041
F5.63035136735
tp355
a(F4.59703253669
F4.53783916272
tp356
a(F7.1066657033
F6.55094178983
tp357
a(F0.907142557333
F1.31959206122
tp358
a(F4.68771137873
F4.56989097943
tp359
a(F5.2408885892
F4.96750297741
tp360
a(F6.891486852
F6.30582382282
tp361
a(F5.37761377899
F4.9766718096
tp362
a(F5.81004282363
F5.50210285112
tp363
a(F3.70152818592
F3.6999574053
tp364
a(F5.84374169201
F5.36351726108
tp365
a(F4.82306081622
F4.5940652704
tp366
a(F7.12374637534
F6.0285345287
tp367
a(F4.79704283771
F4.62772474556
tp368
a(F1.67264738238
F1.78360509203
tp369
a(F7.3890710839
F6.84478759966
tp370
a(F6.63772645772
F5.80069022559
tp371
a(F3.943386032
F3.9063811967
tp372
a(F6.91134895993
F6.18322328405
tp373
a(F5.19509324174
F4.92857712558
tp374
a(F4.36688883293
F4.33346494849
tp375
a(F4.61332529807
F4.57841749334
tp376
a(F6.34273029019
F5.89588746577
tp377
a(F7.33732580922
F6.76040380521
tp378
a(F7.79797953365
F6.7894940322
tp379
a(F1.91107794644
F2.04551714187
tp380
a(F4.71120382185
F4.73183876871
tp381
a(F5.87707828586
F5.65022034075
tp382
a(F6.95095501743
F6.29459968609
tp383
a(F5.84612359022
F5.46867476388
tp384
a(F4.66483327323
F4.57639655249
tp385
a(F6.84535089727
F6.22275297048
tp386
a(F6.89544882881
F6.47964960156
tp387
a(F3.95970228191
F3.84473638962
tp388
a(F5.65801792871
F5.42456168146
tp389
a(F5.01530447656
F4.90803357204
tp390
a(F1.03538764373
F1.30106502176
tp391
a(F6.92078951766
F6.24705779549
tp392
a(F4.783286099
F4.8042897339
tp393
a(F4.63949151315
F4.47443599221
tp394
a(F6.00643874587
F5.51661180538
tp395
a(F7.22465034085
F6.51024040678
tp396
a(F4.21332588202
F4.05077409251
tp397
a(F6.98598427045
F6.1463199405
tp398
a(F5.06510702153
F4.76846864413
tp399
a(F5.72365081782
F5.34926401927
tp400
a(F7.16981427247
F6.491216068
tp401
a(F2.08995129292
F2.33623706097
tp402
a(F7.60732840416
F6.67797890234
tp403
a(F4.54723340463
F4.35307799539
tp404
a(F6.75990884151
F6.44447966235
tp405
a(F5.21192140397
F5.00468228938
tp406
a(F5.08187520822
F5.08869467437
tp407
a(F5.76345339201
F5.29047181891
tp408
a(F4.64319245175
F4.92876564953
tp409
a(F4.93764366962
F4.79722417857
tp410
a(F7.07705041425
F6.39963244208
tp411
a(F3.98598741687
F4.01189331368
tp412
a(F1.85212795406
F1.99379112534
tp413
a(F7.872746382
F6.81231648461
tp414
a(F5.22655917467
F4.84345523075
tp415
a(F7.23997162093
F6.43032150235
tp416
a(F6.51857540191
F6.00989121237
tp417
a(F4.5297398345
F4.60499923417
tp418
a(F6.04156543715
F5.6135759456
tp419
a(F7.21466265211
F6.71399994035
tp420
a(F7.32061547353
F6.68607267993
tp421
a(F3.94589621646
F3.89919070821
tp422
a(F5.17470784163
F5.03687572607
tp423
a(F1.50668785511
F1.75403765057
tp424
a(F6.64166584291
F6.34723647593
tp425
a(F7.54960911418
F6.86600993091
tp426
a(F5.69546918743
F5.36973153931
tp427
a(F4.92893112787
F4.86635059161
tp428
a(F5.15125445061
F4.84508917672
tp429
a(F4.40723421936
F4.26461355866
tp430
a(F6.60203366657
F5.96354937834
tp431
a(F5.67642009183
F5.31832089275
tp432
a(F5.57292232996
F5.33225678269
tp433
a(F5.5715074052
F5.06286084822
tp434
a(F1.2051438299
F1.59976565867
tp435
a(F6.16068120688
F5.65098692382
tp436
a(F6.02961305908
F5.72530176771
tp437
a(F4.61025774511
F4.40738070089
tp438
a(F6.23022562081
F5.43235136689
tp439
a(F6.83255314856
F6.04681230916
tp440
a(F3.87352758322
F3.89114217225
tp441
a(F5.34080864879
F5.11777413872
tp442
a(F5.28099834311
F5.11792376737
tp443
a(F6.56922834657
F6.01381881733
tp444
a(F8.29694032218
F7.50871433817
tp445
a(F1.68555226558
F1.83134033983
tp446
a(F1.37683927674
F1.70950997417
tp447
a(F0.893836110538
F1.33620261762
tp448
a(F0.646397341755
F1.09576933194
tp449
a(F1.44009370235
F1.76608705285
tp450
a(F0.497333177357
F1.10907962301
tp451
a(F1.45692986019
F1.69285193751
tp452
a(F1.65208352255
F1.93215970008
tp453
a(F1.29042216505
F1.55132584142
tp454
a(F0.8398991125
F1.22722791833
tp455
a(F2.03298578077
F2.16014105481
tp456
a(F1.74463782125
F1.82572324267
tp457
a(F1.13538786632
F1.54575766859
tp458
a(F0.854353857847
F1.29172194692
tp459
a(F0.78135497402
F1.1393339525
tp460
a(F0.949431525444
F1.32207975899
tp461
a(F1.53519395445
F1.90364607147
tp462
a(F0.857591384365
F1.48659747874
tp463
a(F2.00233409485
F2.13369147336
tp464
a(F1.77772374699
F1.92816524725
tp465
a(F1.47019690401
F1.66863503175
tp466
a(F1.61737660579
F1.72366834602
tp467
a(F0.888497191167
F1.31118408373
tp468
a(F1.32532209466
F1.67261833175
tp469
a(F0.793186924068
F1.22670155628
tp470
a(F1.10812914647
F1.51850771431
tp471
a(F1.75865042695
F2.02436807313
tp472
a(F1.07149897812
F1.26774915708
tp473
a(F1.57612492367
F2.00199054168
tp474
a(F1.34480590934
F1.82539465013
tp475
a(F1.27631505287
F1.67473866571
tp476
a(F1.30853567918
F1.55352676546
tp477
a(F2.07413587408
F2.06279515236
tp478
a(F1.99143356768
F2.26099900864
tp479
a(F0.685927979465
F1.10077533616
tp480
a(F0.734034506956
F1.17245474586
tp481
a(F0.247069790261
F0.76586435796
tp482
a(F1.48042343881
F1.97538226522
tp483
a(F1.31996219329
F1.69067883182
tp484
a(F1.32105961146
F1.62071737911
tp485
a(F1.28758974115
F1.6369047002
tp486
a(F1.98860860885
F2.20825218851
tp487
a(F0.890211307175
F1.31528206046
tp488
a(F1.86922571329
F2.08583145831
tp489
a(F1.43645595801
F1.75108059347
tp490
a(F1.1033271394
F1.52776783493
tp491
a(F1.09456771114
F1.76568831253
tp492
a(F1.01965140772
F1.38715597707
tp493
a(F1.25340588304
F1.7300216752
tp494
a(F1.31472665114
F1.64256582794
tp495
a(F1.88012801949
F2.15111582671
tp496
a(F1.33177659699
F1.76404989646
tp497
a(F1.98672456073
F2.19338807875
tp498
a(F1.20041746851
F1.52070029714
tp499
a(F0.729198056505
F1.15155920888
tp500
a.