(lp0
(F2.65687233272
F0.323067146701
tp1
a(F2.02292232492
F-0.00913874608666
tp2
a(F1.9275479436
F0.163361347611
tp3
a(F3.86392923054
F1.26862886398
tp4
a(F3.57051046861
F1.13186051359
tp5
a(F4.40023622424
F-0.0971288482837
tp6
a(F3.05452969292
F0.746117614504
tp7
a(F4.71356885423
F1.72371590137
tp8
a(F4.22244519768
F1.82657467877
tp9
a(F4.33156163876
F1.3718317422
tp10
a(F2.2788632476
F1.52693323753
tp11
a(F2.75179418601
F2.74426813881
tp12
a(F4.00962739709
F1.83294836465
tp13
a(F2.14388206937
F-0.0591643597944
tp14
a(F3.94297116364
F0.604379353225
tp15
a(F3.54063408711
F2.47567397728
tp16
a(F3.17749876203
F1.16018626852
tp17
a(F3.37495459952
F1.24130803989
tp18
a(F3.79722332203
F3.17353392791
tp19
a(F4.15840090091
F3.16037598128
tp20
a(F4.31673738149
F3.36372784284
tp21
a(F2.86481584607
F1.64064292187
tp22
a(F3.66303098523
F1.88820000976
tp23
a(F3.6203565585
F1.17654083368
tp24
a(F1.8913233709
F1.33808639915
tp25
a(F3.42690694432
F1.7561708663
tp26
a(F3.44755943113
F1.76258365455
tp27
a(F2.929359428
F1.44721133092
tp28
a(F4.57704760759
F1.51995346496
tp29
a(F3.89721227339
F1.84921494948
tp30
a(F3.46615256569
F1.85754375373
tp31
a(F3.48961610954
F1.35399128708
tp32
a(F3.72823013689
F1.57131442451
tp33
a(F4.23540498501
F1.71186788406
tp34
a(F4.65916395987
F-0.685429830872
tp35
a(F0.515723130463
F1.87455328354
tp36
a(F4.56782676357
F2.78511056154
tp37
a(F3.30428218192
F2.02937910718
tp38
a(F4.16292655788
F2.37256103449
tp39
a(F4.78044451779
F3.92963685475
tp40
a(F4.62652612737
F1.51987526022
tp41
a(F3.0887038574
F1.57258525145
tp42
a(F3.38842282317
F3.30405763022
tp43
a(F3.80769648824
F1.0288531472
tp44
a(F3.3750937608
F2.3646428051
tp45
a(F3.88234972237
F1.57217467659
tp46
a(F2.00438474222
F0.610719802096
tp47
a(F3.11226375686
F2.83887631669
tp48
a(F4.15494717504
F1.49817344633
tp49
a(F3.2374335984
F2.87449857337
tp50
a(F3.49854089896
F2.14711633536
tp51
a(F3.87838797069
F1.46337820471
tp52
a(F4.4770456614
F1.02509345458
tp53
a(F4.24851994908
F2.62310945348
tp54
a(F3.57546202759
F1.04094359919
tp55
a(F2.22383833577
F1.01410568934
tp56
a(F2.46673720716
F2.8242324801
tp57
a(F1.25616608548
F1.16914853112
tp58
a(F2.61152942438
F2.27505928143
tp59
a(F3.31252258577
F2.82284434606
tp60
a(F3.46548722261
F0.624951108704
tp61
a(F4.03856342314
F0.355731309292
tp62
a(F4.20556474219
F1.74747058956
tp63
a(F5.52075461243
F2.06095426884
tp64
a(F4.17819197803
F2.32769106793
tp65
a(F3.42976513593
F-0.160564618884
tp66
a(F3.82066315621
F2.03399318653
tp67
a(F4.19913914188
F1.49107636665
tp68
a(F1.3689526167
F0.645575652378
tp69
a(F2.88676506555
F1.92925749551
tp70
a(F3.80994764266
F1.86640043994
tp71
a(F4.7505382517
F3.07538698578
tp72
a(F2.48634403367
F-0.336436314209
tp73
a(F2.50699713858
F2.15335316296
tp74
a(F2.4179366311
F1.13590174326
tp75
a(F4.37188068838
F0.406433393955
tp76
a(F3.74436978034
F1.89347882935
tp77
a(F2.39938580877
F1.23944481208
tp78
a(F2.65901506477
F1.32314342946
tp79
a(F1.69492917075
F-0.0464384943305
tp80
a(F3.9772530452
F0.188981218718
tp81
a(F3.27203338219
F2.18258218258
tp82
a(F4.65294300855
F1.57985829178
tp83
a(F4.53800017241
F1.92364630579
tp84
a(F3.73942482812
F2.61777198034
tp85
a(F3.88156877791
F0.909332851067
tp86
a(F3.14303296357
F0.370181589157
tp87
a(F4.24362730944
F3.52125172984
tp88
a(F4.62970633768
F1.73601359591
tp89
a(F3.83299657069
F1.59084605702
tp90
a(F2.12071129732
F0.261347970028
tp91
a(F3.01924447066
F1.84082749168
tp92
a(F4.25991514227
F1.83593969575
tp93
a(F4.34552386001
F1.52085281941
tp94
a(F3.41657692612
F0.55932560553
tp95
a(F4.17973749596
F2.08447434282
tp96
a(F4.47942678938
F2.08423972862
tp97
a(F2.51795810234
F1.18239445807
tp98
a(F4.4061103654
F3.11867330647
tp99
a(F3.98132496043
F1.22812858696
tp100
a(F5.57753207746
F1.91809376962
tp101
a(F1.73633253457
F-0.278202136029
tp102
a(F3.72007227125
F0.761623658289
tp103
a(F4.41311878447
F2.23339570899
tp104
a(F2.14481285384
F1.82669198587
tp105
a(F2.96172310778
F0.83666305641
tp106
a(F2.29962334101
F1.48710747636
tp107
a(F2.77723540756
F1.94106641046
tp108
a(F4.01808313668
F1.33732585811
tp109
a(F2.55063279423
F1.94079269388
tp110
a(F3.4294453623
F1.83535316024
tp111
a(F4.8525371037
F2.94417899204
tp112
a(F1.67344996667
F0.00983567768452
tp113
a(F2.36259907285
F0.479543090246
tp114
a(F4.69223855134
F3.16391474553
tp115
a(F5.28895449179
F3.03084938934
tp116
a(F3.83515788416
F3.99266987097
tp117
a(F5.01503285806
F4.9179296391
tp118
a(F2.62156819168
F3.71187577081
tp119
a(F6.96554167245
F3.52606132102
tp120
a(F4.13429527228
F3.61253620648
tp121
a(F4.32620958766
F3.70491554942
tp122
a(F5.82439605852
F1.96048073586
tp123
a(F4.90118495467
F3.00975366214
tp124
a(F0.748536677648
F1.58805023775
tp125
a(F5.5549143367
F2.61186752286
tp126
a(F5.34314087527
F3.85856830204
tp127
a(F4.46827613693
F4.15246169527
tp128
a(F5.91981527566
F6.36397428718
tp129
a(F4.61064098108
F2.29402392961
tp130
a(F6.16859617923
F2.92597684002
tp131
a(F4.90739798376
F4.34480624041
tp132
a(F5.68691437457
F3.94125025786
tp133
a(F5.34557509201
F2.22086340024
tp134
a(F5.39708873729
F3.65318311738
tp135
a(F1.1108800708
F0.352452575787
tp136
a(F6.11754434189
F3.41702436958
tp137
a(F3.82400736253
F3.39154917724
tp138
a(F6.57986067805
F3.30898452851
tp139
a(F2.993339631
F3.51706777653
tp140
a(F4.76442743942
F3.23271536094
tp141
a(F5.72179986379
F1.63014393623
tp142
a(F4.8836968966
F2.50181390987
tp143
a(F3.59871674348
F3.47800451151
tp144
a(F5.35679224135
F3.69717328068
tp145
a(F2.93280614757
F4.05785351739
tp146
a(F1.75283822691
F0.101784894579
tp147
a(F6.54060329314
F3.78918115112
tp148
a(F5.82502364612
F5.4211575561
tp149
a(F4.89191623073
F3.57142006718
tp150
a(F5.42085558179
F4.06536117193
tp151
a(F6.66535611625
F2.77351670961
tp152
a(F3.43637437899
F3.32931775955
tp153
a(F4.05191953244
F2.98193232775
tp154
a(F4.7113906459
F3.42390638624
tp155
a(F5.4439907506
F1.79065915433
tp156
a(F2.91933163458
F2.61783063389
tp157
a(F1.67985509666
F0.521742365122
tp158
a(F5.21108504606
F4.29371899743
tp159
a(F3.55918957502
F3.52696067547
tp160
a(F4.40170862019
F3.43536337989
tp161
a(F4.14063994874
F3.30865215839
tp162
a(F6.65486840361
F3.84687669419
tp163
a(F5.13196521326
F4.29043439857
tp164
a(F4.68935811193
F3.87006439805
tp165
a(F6.09552281536
F1.56402183299
tp166
a(F5.31035742581
F3.34501736005
tp167
a(F6.37437962591
F3.44836491704
tp168
a(F2.97912749176
F0.250188154378
tp169
a(F6.17051508155
F2.88116552701
tp170
a(F4.10667524962
F3.87176535103
tp171
a(F4.81577349988
F2.58901218913
tp172
a(F4.40062138399
F3.43536337989
tp173
a(F3.88981657517
F3.8252921874
tp174
a(F5.17525465811
F2.84534775849
tp175
a(F5.15558358233
F3.85872471151
tp176
a(F3.96374022582
F3.50664699562
tp177
a(F6.19732944991
F4.24775416457
tp178
a(F4.59360627376
F4.28290719285
tp179
a(F1.41513637301
F-0.128426383135
tp180
a(F4.69099235893
F2.7165836627
tp181
a(F5.94188545763
F3.89084730631
tp182
a(F4.94474871291
F3.88341785651
tp183
a(F2.80758691275
F4.09267417554
tp184
a(F4.83096251842
F3.7478499488
tp185
a(F5.55694657214
F5.00119813044
tp186
a(F3.66719876498
F3.14268216005
tp187
a(F5.01979646609
F1.81746382717
tp188
a(F4.97402521566
F3.11022719512
tp189
a(F4.81795421422
F2.89316995379
tp190
a(F1.97473511929
F0.756092628423
tp191
a(F4.32564656771
F2.23552678801
tp192
a(F4.66843920486
F2.28989862985
tp193
a(F4.35939235641
F3.15073724773
tp194
a(F5.34660606468
F2.6229725952
tp195
a(F4.9070694784
F3.29001988033
tp196
a(F6.03561413059
F3.18866654408
tp197
a(F5.04633127468
F4.44917045895
tp198
a(F5.07174423948
F3.98672631113
tp199
a(F6.76102198955
F3.20329082948
tp200
a(F2.37839320225
F3.93391856398
tp201
a(F1.63118234646
F1.15135890908
tp202
a(F3.7299718991
F3.65148216439
tp203
a(F6.06293851302
F5.1354952112
tp204
a(F5.09784305414
F2.97184391696
tp205
a(F5.59366872823
F5.1479688664
tp206
a(F4.54687003383
F3.04134837498
tp207
a(F4.18598164895
F2.56011553963
tp208
a(F4.95942496056
F2.86640438332
tp209
a(F5.37604522064
F3.63947773761
tp210
a(F3.75170549098
F2.86321754038
tp211
a(F4.36671439422
F4.20319701694
tp212
a(F1.49851798074
F0.48864807649
tp213
a(F6.04764572459
F3.67060322204
tp214
a(F5.24521310759
F3.04742879311
tp215
a(F5.43043020174
F2.19699140496
tp216
a(F5.23966461283
F4.80427860831
tp217
a(F5.8515841347
F5.40786275119
tp218
a(F5.73695077511
F2.33643044704
tp219
a(F4.7534755428
F4.20587552911
tp220
a(F4.06389439358
F4.03873245974
tp221
a(F2.86749784429
F3.73471155336
tp222
a(F5.36331712877
F4.3398988933
tp223
a(F2.11340738985
F2.23462743356
tp224
a(F0.728154407684
F0.876789905815
tp225
a(F4.48408587287
F5.12186803617
tp226
a(F5.34957126389
F5.04094568688
tp227
a(F4.47575653868
F4.486747834
tp228
a(F5.31613630136
F4.15834660156
tp229
a(F5.46040320931
F4.13858035485
tp230
a(F6.14639660479
F6.20770167595
tp231
a(F7.69272699806
F2.38288405948
tp232
a(F3.41326735267
F3.42502080371
tp233
a(F5.02761233477
F5.61973892884
tp234
a(F5.3909338812
F4.27213449063
tp235
a(F1.55881052298
F1.27435540568
tp236
a(F5.87250154513
F4.44213203282
tp237
a(F4.9184984024
F5.12315841429
tp238
a(F6.1907275034
F5.09244350472
tp239
a(F5.48176529874
F5.53369416942
tp240
a(F4.62267808806
F4.08524472574
tp241
a(F5.68589770669
F4.12315447092
tp242
a(F5.06592235088
F4.84273578663
tp243
a(F5.82867960762
F4.09271327791
tp244
a(F6.55423601629
F3.81240795735
tp245
a(F6.64654482839
F4.90400919631
tp246
a(F1.78219825139
F-0.157283930261
tp247
a(F4.95829856386
F5.41681719332
tp248
a(F4.77889333755
F2.62936583226
tp249
a(F5.40016234388
F4.56145290688
tp250
a(F5.37259730072
F4.19189643277
tp251
a(F6.78067324469
F5.87904627812
tp252
a(F4.42428605523
F4.33184380562
tp253
a(F6.21088959125
F3.98070454655
tp254
a(F4.6715145961
F3.51045947644
tp255
a(F5.9746624046
F4.57429803456
tp256
a(F3.45358968138
F5.00905770628
tp257
a(F1.44117121639
F0.169985288645
tp258
a(F5.41104266439
F3.50375342043
tp259
a(F6.72667302592
F4.71453867517
tp260
a(F4.39123920956
F4.05906569078
tp261
a(F5.76723534937
F4.8941945021
tp262
a(F5.8305003622
F4.99576290137
tp263
a(F5.26984516306
F3.61286857661
tp264
a(F4.64225615905
F4.16204177528
tp265
a(F5.67542731524
F4.32986913607
tp266
a(F6.00791132918
F4.33725948351
tp267
a(F4.78570029122
F2.66322848241
tp268
a(F2.08758084118
F2.22661144825
tp269
a(F4.95607787605
F4.32785536415
tp270
a(F6.22635990846
F3.02099559276
tp271
a(F6.76915195073
F3.34644459646
tp272
a(F5.40051735815
F4.33086624644
tp273
a(F5.54805458543
F3.55740186848
tp274
a(F4.11408285848
F5.37259241581
tp275
a(F7.24287609305
F5.67440403844
tp276
a(F4.90002041026
F4.53281042277
tp277
a(F4.61153678256
F4.51458871958
tp278
a(F6.75052636302
F5.32903237855
tp279
a(F2.31163160953
F0.748465711665
tp280
a(F7.11345417157
F-0.527790982921
tp281
a(F5.84977904308
F3.27916897339
tp282
a(F5.07854088015
F4.36981220435
tp283
a(F7.13943570015
F5.16898638886
tp284
a(F5.38700297852
F2.72201889177
tp285
a(F4.44843649631
F4.55417986655
tp286
a(F5.72392477798
F4.33374027044
tp287
a(F5.14640619218
F5.95680133565
tp288
a(F5.73234343105
F3.54189777981
tp289
a(F4.43873606714
F2.51950773111
tp290
a(F1.64697269963
F0.523760047279
tp291
a(F5.19483351265
F4.0911687344
tp292
a(F6.60634947388
F3.27107478334
tp293
a(F7.27720103094
F5.18415810741
tp294
a(F3.95402539915
F3.28870995103
tp295
a(F6.34192078529
F4.3102984012
tp296
a(F7.11798877675
F5.11527928727
tp297
a(F4.68172259573
F4.21561201859
tp298
a(F6.20208096925
F3.94449575436
tp299
a(F4.56833860381
F3.76159443094
tp300
a(F5.01684337288
F5.57443883623
tp301
a(F1.75872868728
F0.0957103418063
tp302
a(F7.00679947816
F3.80857592534
tp303
a(F5.61637301553
F3.6743766005
tp304
a(F7.36902302239
F6.50478191212
tp305
a(F8.64458277995
F4.14831684433
tp306
a(F5.79632171035
F4.39411432568
tp307
a(F6.11639389909
F4.76943839897
tp308
a(F3.96214759103
F4.47310110778
tp309
a(F5.10846690796
F4.08354377276
tp310
a(F5.78765131567
F5.13289490377
tp311
a(F4.2482075474
F4.87521030274
tp312
a(F1.44578581434
F0.997745258832
tp313
a(F4.09966660199
F3.47771124376
tp314
a(F5.26176097463
F6.60056316102
tp315
a(F3.92165206668
F3.82754057352
tp316
a(F7.12332253264
F4.55748401659
tp317
a(F4.91614844854
F5.23049441275
tp318
a(F4.99459460381
F4.32187270194
tp319
a(F4.82981074998
F4.03482222301
tp320
a(F4.50664909583
F3.45509052423
tp321
a(F4.15209280734
F4.32916529346
tp322
a(F4.61285408344
F5.42831328933
tp323
a(F2.02786712114
F-0.490394026192
tp324
a(F5.16685883341
F3.00556970883
tp325
a(F5.30822989053
F5.79519125127
tp326
a(F7.25373284624
F6.95443958581
tp327
a(F5.11154100279
F4.62215933224
tp328
a(F4.61867832123
F3.98655035047
tp329
a(F4.45772980543
F4.78881362201
tp330
a(F6.34717286032
F5.15293486705
tp331
a(F4.5862169994
F1.88223689873
tp332
a(F5.25177871157
F4.66837833048
tp333
a(F4.78103392534
F2.43917191733
tp334
a(F2.52034108788
F0.759254054826
tp335
a(F2.52239474696
F0.709056390701
tp336
a(F6.58801603291
F2.85363746037
tp337
a(F7.51225764105
F1.20822352685
tp338
a(F5.75301387979
F3.51339215399
tp339
a(F7.82778518461
F5.39273013501
tp340
a(F7.79498171609
F5.2227716952
tp341
a(F6.237038384
F4.32390602505
tp342
a(F7.89174111165
F3.6415306119
tp343
a(F6.34677348803
F5.54128002869
tp344
a(F6.98892208453
F6.04347173295
tp345
a(F7.37047250808
F4.6922112234
tp346
a(F1.88869439143
F-0.46562255915
tp347
a(F4.19555442017
F5.12030394148
tp348
a(F7.76089294288
F2.62158446115
tp349
a(F7.62823784265
F5.66359223385
tp350
a(F5.45755761445
F4.11097408348
tp351
a(F6.25976896532
F2.51956638466
tp352
a(F5.78990731979
F4.49650387466
tp353
a(F6.05713002422
F2.91403106679
tp354
a(F5.94815387125
F4.66290399905
tp355
a(F6.9680428337
F5.04411297864
tp356
a(F5.83343453438
F2.50060173648
tp357
a(F1.87034543058
F2.26317216175
tp358
a(F8.72785464743
F3.2853862498
tp359
a(F7.22121612209
F2.27541120274
tp360
a(F5.79990935807
F4.30992692871
tp361
a(F6.30320510189
F5.03398546548
tp362
a(F4.8608859571
F3.32051972689
tp363
a(F5.85094456492
F4.54485395193
tp364
a(F6.93805698344
F4.90623803125
tp365
a(F6.12752570965
F4.62929551428
tp366
a(F6.55654296105
F5.231159153
tp367
a(F3.98854684217
F4.15512065625
tp368
a(F2.14910531093
F-0.744859563935
tp369
a(F6.63234523923
F4.38254002493
tp370
a(F6.14748132149
F2.98871658849
tp371
a(F5.55260656973
F2.76769045687
tp372
a(F7.16366453636
F3.19685849005
tp373
a(F6.24989936011
F4.49804841817
tp374
a(F5.9085743971
F3.60778526885
tp375
a(F5.93487820336
F5.71739709137
tp376
a(F6.83903116485
F5.33591439521
tp377
a(F7.06368196445
F4.78850080307
tp378
a(F6.22905290726
F3.99012821709
tp379
a(F2.09652777296
F0.500558657594
tp380
a(F7.95481802546
F3.308397993
tp381
a(F6.47228387823
F3.46263728113
tp382
a(F6.451558905
F3.18434573249
tp383
a(F6.61782614021
F3.61584035653
tp384
a(F5.54842401312
F3.50928640542
tp385
a(F6.17830525383
F4.51769735778
tp386
a(F6.61399489828
F1.81230231467
tp387
a(F8.07977083137
F3.38801041299
tp388
a(F7.12056830747
F4.41180814692
tp389
a(F6.04472035348
F3.65103248717
tp390
a(F1.97117122489
F0.905274025333
tp391
a(F6.17822004435
F2.91622079936
tp392
a(F6.86993969339
F2.72184293112
tp393
a(F5.40369523744
F4.07867552802
tp394
a(F6.14553946768
F3.58101969838
tp395
a(F5.40269634858
F4.49175293703
tp396
a(F5.91109318197
F3.26290238856
tp397
a(F5.72953544067
F4.73882124532
tp398
a(F5.84826302882
F5.39624934808
tp399
a(F4.82460845657
F4.54065044743
tp400
a(F5.46407992818
F5.13614040026
tp401
a(F1.52885912943
F-0.176801876939
tp402
a(F5.83386763311
F3.89952803187
tp403
a(F7.77063672387
F4.17140679226
tp404
a(F5.94853552215
F3.71531677914
tp405
a(F7.17841536641
F3.41483463701
tp406
a(F4.86478309353
F3.26096682137
tp407
a(F6.52428821145
F4.0426231453
tp408
a(F5.97906778769
F4.21496682953
tp409
a(F6.72319868686
F5.34805568028
tp410
a(F5.03278106107
F3.36501822097
tp411
a(F6.56999453869
F5.12004977609
tp412
a(F3.05070844796
F1.1833759275
tp413
a(F5.32173125179
F5.16789152258
tp414
a(F5.42887062497
F4.28194918485
tp415
a(F5.81861940236
F5.07807338471
tp416
a(F5.30736763544
F4.41777125794
tp417
a(F7.42820951435
F4.09799209751
tp418
a(F7.68471037665
F3.33099916135
tp419
a(F7.60929895541
F3.1785781333
tp420
a(F5.39132466581
F2.67486143671
tp421
a(F6.30001755816
F4.48017863628
tp422
a(F7.83507502089
F4.83037943854
tp423
a(F1.16226076281
F0.501106090738
tp424
a(F7.47971226877
F4.4694841388
tp425
a(F6.42333172925
F2.87674695949
tp426
a(F6.54715567054
F2.7375620828
tp427
a(F6.18728657645
F3.96510270197
tp428
a(F5.80197308221
F4.23142892619
tp429
a(F6.36590815138
F4.23475262742
tp430
a(F6.24640967966
F4.50260384397
tp431
a(F5.58891536725
F5.41161657846
tp432
a(F8.68679275777
F5.62288666941
tp433
a(F6.15905702154
F5.59418553176
tp434
a(F1.73733818384
F1.99326807091
tp435
a(F6.70401374394
F2.27263493465
tp436
a(F6.65843747574
F3.85874426269
tp437
a(F7.70553943055
F3.86423814531
tp438
a(F6.9301371641
F4.51714992464
tp439
a(F4.41198538666
F4.18327436076
tp440
a(F6.07000469292
F3.73144650569
tp441
a(F6.58270516038
F5.21847043478
tp442
a(F6.02753252699
F2.74221526452
tp443
a(F5.66095168575
F3.62010251457
tp444
a(F6.88226923988
F3.65185363688
tp445
a(F1.53038437548
F0.731761180321
tp446
a(F2.16274901342
F0.836160590989
tp447
a(F1.32557457604
F0.634935898214
tp448
a(F1.57403192512
F0.475099106193
tp449
a(F1.46467410985
F-0.185365295395
tp450
a(F2.53793128126
F0.721684500247
tp451
a(F0.514047370239
F0.84965677309
tp452
a(F1.62213770911
F1.04712959371
tp453
a(F2.29218123765
F0.329235545155
tp454
a(F1.29258646033
F1.1906782946
tp455
a(F2.24101415721
F0.246375673558
tp456
a(F1.34584655959
F0.930102073501
tp457
a(F1.84080072674
F-0.222217321533
tp458
a(F2.47139821446
F-0.754729001461
tp459
a(F1.67364503625
F-0.287635191136
tp460
a(F1.51794647883
F-0.117159035974
tp461
a(F2.16853832287
F0.705564549294
tp462
a(F2.09726797538
F0.694424284828
tp463
a(F1.97166935253
F0.0364585245152
tp464
a(F1.43685259474
F1.37530989778
tp465
a(F3.42370154502
F-0.065446155114
tp466
a(F3.07316432697
F-0.0130919954288
tp467
a(F1.0912872621
F-0.198972919243
tp468
a(F2.32597180398
F0.0667393978144
tp469
a(F1.71994962199
F0.574563798098
tp470
a(F1.89246787435
F0.588593727514
tp471
a(F1.97068733027
F1.12572926239
tp472
a(F1.06083077694
F-0.0489273600142
tp473
a(F2.05371630332
F0.00618547168959
tp474
a(F0.807160156079
F0.938855138439
tp475
a(F0.711279402
F0.213899202331
tp476
a(F1.84029767024
F0.521273136714
tp477
a(F1.13803633209
F1.15194348948
tp478
a(F2.25047778078
F0.914032955626
tp479
a(F0.891705605281
F0.907000394853
tp480
a(F1.51438772779
F-0.621899628054
tp481
a(F1.929312333
F-0.23287662688
tp482
a(F2.16127658174
F0.377628635025
tp483
a(F1.6698811887
F-0.0376111348945
tp484
a(F1.06763650527
F-0.661611014806
tp485
a(F1.06699436548
F0.340352348201
tp486
a(F1.49088233195
F0.0339461974111
tp487
a(F2.17817499486
F1.11505627121
tp488
a(F1.58408770136
F-0.347593783717
tp489
a(F1.8303555633
F0.910238070872
tp490
a(F2.22574120901
F0.630847745705
tp491
a(F1.75874604674
F-0.746091288507
tp492
a(F0.796456427774
F0.133060923128
tp493
a(F2.53573046824
F1.0327594737
tp494
a(F2.41883173753
F2.60664735682
tp495
a(F1.4875779175
F0.662614508964
tp496
a(F2.93328174246
F0.237331295983
tp497
a(F1.10499192889
F0.301975329736
tp498
a(F1.99161681673
F0.99602084443
tp499
a(F2.55225428916
F0.436399493197
tp500
a.