(lp0
(lp1
F-2.14667497103
aa(lp2
F-2.17169633565
aa(lp3
F-2.11165725863
aa(lp4
F-4.12734108112
aa(lp5
F-2.33925904909
aa(lp6
F-3.54969642751
aa(lp7
F-2.19196477431
aa(lp8
F-1.8300888424
aa(lp9
F-1.44175235944
aa(lp10
F-2.32613034745
aa(lp11
F-2.58096738007
aa(lp12
F-2.33506320098
aa(lp13
F-2.41076298916
aa(lp14
F-2.05002783229
aa(lp15
F-2.32133055409
aa(lp16
F-2.5947430146
aa(lp17
F-2.26328169772
aa(lp18
F-1.54722706431
aa(lp19
F-3.23790304789
aa(lp20
F-1.44120255197
aa(lp21
F-2.41822502895
aa(lp22
F-2.17945122448
aa(lp23
F-1.9824210188
aa(lp24
F-2.24008699069
aa(lp25
F-2.45982206487
aa(lp26
F-1.70416978549
aa(lp27
F-1.9960379954
aa(lp28
F-1.87825035603
aa(lp29
F-2.12501767707
aa(lp30
F-2.62514357667
aa(lp31
F-1.51110470191
aa(lp32
F-2.28529955591
aa(lp33
F-1.64712329408
aa(lp34
F-2.09061868532
aa(lp35
F-0.603245104971
aa(lp36
F-1.70365418183
aa(lp37
F-1.83200288304
aa(lp38
F-2.4932352845
aa(lp39
F-1.30641302806
aa(lp40
F-1.84489972798
aa(lp41
F-2.50164670305
aa(lp42
F-2.02368995626
aa(lp43
F-1.88434130678
aa(lp44
F-2.0172154175
aa(lp45
F-2.03229592628
aa(lp46
F-1.7398309643
aa(lp47
F-1.86814505083
aa(lp48
F-2.29495749326
aa(lp49
F-2.64092641636
aa(lp50
F-2.23159576561
aa(lp51
F-4.26817576766
aa(lp52
F-2.95458149372
aa(lp53
F-2.32623109068
aa(lp54
F-1.92314506327
aa(lp55
F-2.02296862844
aa(lp56
F-1.87000762403
aa(lp57
F-1.81786577333
aa(lp58
F-1.69463723176
aa(lp59
F-3.91495552764
aa(lp60
F-2.00942612919
aa(lp61
F-4.00038819732
aa(lp62
F-1.99205457355
aa(lp63
F-2.4744163034
aa(lp64
F-2.00868453872
aa(lp65
F-2.31678621601
aa(lp66
F-3.40219642527
aa(lp67
F-1.99549381854
aa(lp68
F-2.32093288765
aa(lp69
F-2.19364479202
aa(lp70
F-1.43645549395
aa(lp71
F-2.23110196925
aa(lp72
F-2.7300384807
aa(lp73
F-3.39632926439
aa(lp74
F-0.598269407319
aa(lp75
F-0.85988843056
aa(lp76
F-2.58939796341
aa(lp77
F-2.06949313181
aa(lp78
F-1.75706000151
aa(lp79
F-3.47936763781
aa(lp80
F-2.35868285266
aa(lp81
F-2.21137690698
aa(lp82
F-2.0957207446
aa(lp83
F-1.69803697987
aa(lp84
F-2.74866351614
aa(lp85
F-1.91632516769
aa(lp86
F-1.67304403881
aa(lp87
F-3.16800838015
aa(lp88
F-1.52926426387
aa(lp89
F-1.25295672949
aa(lp90
F-1.31731026242
aa(lp91
F-1.28170661312
aa(lp92
F-2.73082848483
aa(lp93
F-3.61706152115
aa(lp94
F-1.77467592059
aa(lp95
F-2.43043935161
aa(lp96
F-2.3038931876
aa(lp97
F-4.05922725672
aa(lp98
F-2.14961710453
aa(lp99
F-1.20473862379
aa(lp100
F-1.75569518733
aa(lp101
F-0.123372981879
aa(lp102
F-1.81035142339
aa(lp103
F-1.33243210806
aa(lp104
F-1.73607189924
aa(lp105
F-1.72058297287
aa(lp106
F-2.47204088302
aa(lp107
F-2.04074485469
aa(lp108
F-3.31446439936
aa(lp109
F-0.575947523078
aa(lp110
F-2.47235736847
aa(lp111
F-1.34531422874
aa(lp112
F-1.2579863558
aa(lp113
F-2.63541182891
aa(lp114
F-1.47995091413
aa(lp115
F-1.94812577705
aa(lp116
F-1.83604417705
aa(lp117
F-1.71303504585
aa(lp118
F-1.0882595391
aa(lp119
F-2.82547805198
aa(lp120
F-2.26563070482
aa(lp121
F-0.49570433117
aa(lp122
F-1.55014942125
aa(lp123
F-1.92713360671
aa(lp124
F-1.45308250239
aa(lp125
F-1.47705364876
aa(lp126
F-1.81743365927
aa(lp127
F-3.10560915773
aa(lp128
F-1.32928104484
aa(lp129
F-2.22647387418
aa(lp130
F-2.30808210579
aa(lp131
F-2.19070453908
aa(lp132
F-2.07340236746
aa(lp133
F-2.4760985187
aa(lp134
F-2.97629345389
aa(lp135
F-1.32332540973
aa(lp136
F-1.20168147764
aa(lp137
F-2.02859899676
aa(lp138
F-1.15007733803
aa(lp139
F-1.44628221741
aa(lp140
F-2.56789238174
aa(lp141
F-1.80195800202
aa(lp142
F-1.29665433331
aa(lp143
F0.442440900307
aa(lp144
F-1.12473599242
aa(lp145
F-0.697838453733
aa(lp146
F-1.51812710133
aa(lp147
F-0.283883853764
aa(lp148
F-0.742668179031
aa(lp149
F-0.576693525512
aa(lp150
F-1.17449764457
aa(lp151
F-1.54325919085
aa(lp152
F-2.39052854074
aa(lp153
F-2.06077682963
aa(lp154
F-1.83878221378
aa(lp155
F-0.227317521515
aa(lp156
F-1.789605371
aa(lp157
F-1.9357749126
aa(lp158
F-3.09274971841
aa(lp159
F-2.19176087253
aa(lp160
F-0.707233537882
aa(lp161
F-1.55723852274
aa(lp162
F-1.49057728524
aa(lp163
F-0.676297233209
aa(lp164
F-0.679043742627
aa(lp165
F-1.24822059201
aa(lp166
F-1.38242780193
aa(lp167
F-4.6099965411
aa(lp168
F0.0144988670207
aa(lp169
F-0.31671939567
aa(lp170
F-1.39925398418
aa(lp171
F0.286785943274
aa(lp172
F-2.88730499878
aa(lp173
F-0.378073916263
aa(lp174
F-0.657623073725
aa(lp175
F-1.80363716567
aa(lp176
F-0.406467252243
aa(lp177
F-0.780850525041
aa(lp178
F-0.916215150791
aa(lp179
F-1.07022354563
aa(lp180
F0.162139049474
aa(lp181
F-0.552549305483
aa(lp182
F-0.482246260341
aa(lp183
F-1.16167040218
aa(lp184
F-1.83666667557
aa(lp185
F-1.28416165586
aa(lp186
F-3.22933078326
aa(lp187
F-1.07736635199
aa(lp188
F0.4054232069
aa(lp189
F-1.2083103416
aa(lp190
F-0.263830699311
aa(lp191
F-1.62640909812
aa(lp192
F-2.64303493287
aa(lp193
F-3.17214264816
aa(lp194
F-0.880892987737
aa(lp195
F-0.607825972185
aa(lp196
F-1.93138678654
aa(lp197
F-1.56233487692
aa(lp198
F-0.401510428953
aa(lp199
F-0.257496423062
aa(lp200
F-1.30135744427
aa(lp201
F-1.285422076
aa(lp202
F-0.330293993857
aa(lp203
F-1.08973673237
aa(lp204
F-1.48838261654
aa(lp205
F-0.290919830586
aa(lp206
F-2.10566714406
aa(lp207
F-1.90637371106
aa(lp208
F-3.30085559779
aa(lp209
F-2.07854191807
aa(lp210
F-0.177359586964
aa(lp211
F-0.191268700634
aa(lp212
F-0.64961376363
aa(lp213
F-0.774901104682
aa(lp214
F-1.1438949268
aa(lp215
F-1.79168079848
aa(lp216
F-1.46629738143
aa(lp217
F-0.300270032092
aa(lp218
F-1.05624484958
aa(lp219
F-0.977942172017
aa(lp220
F-2.79652771659
aa(lp221
F-0.785326495619
aa(lp222
F-0.535594859045
aa(lp223
F0.21126572773
aa(lp224
F-2.21638222788
aa(lp225
F-2.38326218605
aa(lp226
F-1.11772548264
aa(lp227
F-2.01609806758
aa(lp228
F-1.70187465859
aa(lp229
F-2.01712671897
aa(lp230
F-1.42792130631
aa(lp231
F-2.116834192
aa(lp232
F-2.252997906
aa(lp233
F-2.11842231142
aa(lp234
F-1.63652536825
aa(lp235
F-2.97597733103
aa(lp236
F-1.69275342483
aa(lp237
F-2.02409913029
aa(lp238
F-1.526842692
aa(lp239
F-2.42540280038
aa(lp240
F-1.69287002844
aa(lp241
F-1.5888334253
aa(lp242
F-1.84035709047
aa(lp243
F-1.97601471619
aa(lp244
F-1.56502727066
aa(lp245
F-1.68950316747
aa(lp246
F-1.89975879359
aa(lp247
F-2.20222732837
aa(lp248
F-1.85666942525
aa(lp249
F-1.62782375024
aa(lp250
F-1.93154980851
aa.