ccopy_reg
_reconstructor
p0
(csklearn.mixture.gmm
GMM
p1
c__builtin__
object
p2
Ntp3
Rp4
(dp5
S'min_covar'
p6
F0.001
sS'verbose'
p7
I0
sS'covariance_type'
p8
S'diag'
p9
sS'converged_'
p10
I01
sS'n_iter'
p11
I100
sS'covars_'
p12
cnumpy.core.multiarray
_reconstruct
p13
(cnumpy
ndarray
p14
(I0
tp15
S'b'
p16
tp17
Rp18
(I1
(I4
I1
tp19
cnumpy
dtype
p20
(S'f8'
p21
I0
I1
tp22
Rp23
(I3
S'<'
p24
NNNI-1
I-1
I0
tp25
bI00
S'\xe6\xe2\xd7`M\xd4\xd5?\x1cF8~E\x9d\xd9?\xf0\xf5\xeak\x06\xa2\xd3?\xa9\xed\xd4\x9c\xad8\xe2?'
p26
tp27
bsS'weights_'
p28
g13
(g14
(I0
tp29
g16
tp30
Rp31
(I1
(I4
tp32
g23
I00
S'\xe6Q\x05\x96\x8b\xa7\xd4?\xdc\xcd[\xe8z\x02\xd2?\x8an\x7f\xe6_\xa0\xcf?\x11R\xbe\x1c\x93\x0b\xc3?'
p33
tp34
bsS'random_state'
p35
NsS'thresh'
p36
NsS'n_components'
p37
I4
sS'tol'
p38
F0.001
sS'params'
p39
S'wmc'
p40
sS'means_'
p41
g13
(g14
(I0
tp42
g16
tp43
Rp44
(I1
(I4
I1
tp45
g23
I00
S'\xb5d\x0fM"\xbd\xde?\x8a\xb1\xe4 \xd5\xf0\xec?\xb05\xb3[6\xc4\xb8?\x16\x0b3%^F\xfa?'
p46
tp47
bsS'init_params'
p48
g40
sS'n_init'
p49
I1
sb.