(lp0
(F0.323067146701
F2.589523611
tp1
a(F-0.00913874608666
F2.251010545
tp2
a(F0.163361347611
F2.20109175191
tp3
a(F1.26862886398
F3.63350392803
tp4
a(F1.13186051359
F3.58600407467
tp5
a(F-0.0971288482837
F4.1381322508
tp6
a(F0.746117614504
F2.81646354721
tp7
a(F1.72371590137
F4.1620316136
tp8
a(F1.82657467877
F4.09412166276
tp9
a(F1.3718317422
F4.58875891733
tp10
a(F1.52693323753
F2.2966742632
tp11
a(F2.74426813881
F2.78517240863
tp12
a(F1.83294836465
F4.07507316651
tp13
a(F-0.0591643597944
F2.24085906806
tp14
a(F0.604379353225
F3.71623628618
tp15
a(F2.47567397728
F3.25270244691
tp16
a(F1.16018626852
F3.09317670681
tp17
a(F1.24130803989
F3.4023044249
tp18
a(F3.17353392791
F3.28649477846
tp19
a(F3.16037598128
F4.28490209803
tp20
a(F3.36372784284
F4.2180069316
tp21
a(F1.64064292187
F2.85687211162
tp22
a(F1.88820000976
F3.57238320495
tp23
a(F1.17654083368
F3.5085218434
tp24
a(F1.33808639915
F2.09766884002
tp25
a(F1.7561708663
F3.31573845301
tp26
a(F1.76258365455
F3.33634146443
tp27
a(F1.44721133092
F2.82734942173
tp28
a(F1.51995346496
F4.02724699261
tp29
a(F1.84921494948
F3.55964728753
tp30
a(F1.85754375373
F2.96472121138
tp31
a(F1.35399128708
F3.38678323024
tp32
a(F1.57131442451
F3.60685384454
tp33
a(F1.71186788406
F3.85909850122
tp34
a(F-0.685429830872
F4.33233170573
tp35
a(F1.87455328354
F1.0426391765
tp36
a(F2.78511056154
F3.85517012733
tp37
a(F2.02937910718
F3.31093425618
tp38
a(F2.37256103449
F3.95578670697
tp39
a(F3.92963685475
F4.14689799776
tp40
a(F1.51987526022
F4.00696613298
tp41
a(F1.57258525145
F3.25020242907
tp42
a(F3.30405763022
F3.254404061
tp43
a(F1.0288531472
F3.32477680073
tp44
a(F2.3646428051
F3.53083699468
tp45
a(F1.57217467659
F3.5347874875
tp46
a(F0.610719802096
F2.46409055405
tp47
a(F2.83887631669
F2.92875528072
tp48
a(F1.49817344633
F3.71265284858
tp49
a(F2.87449857337
F3.14640791688
tp50
a(F2.14711633536
F3.28039569266
tp51
a(F1.46337820471
F3.53072381323
tp52
a(F1.02509345458
F4.15620637642
tp53
a(F2.62310945348
F3.7698355309
tp54
a(F1.04094359919
F3.48383700845
tp55
a(F1.01410568934
F2.43376770097
tp56
a(F2.8242324801
F2.63967545345
tp57
a(F1.16914853112
F1.7891115282
tp58
a(F2.27505928143
F2.77916253821
tp59
a(F2.82284434606
F3.28820124209
tp60
a(F0.624951108704
F3.54712329921
tp61
a(F0.355731309292
F3.8602654413
tp62
a(F1.74747058956
F3.64356317517
tp63
a(F2.06095426884
F4.95180205968
tp64
a(F2.32769106793
F3.94611374632
tp65
a(F-0.160564618884
F3.18141755184
tp66
a(F2.03399318653
F3.67204882918
tp67
a(F1.49107636665
F3.92212748668
tp68
a(F0.645575652378
F1.62067572335
tp69
a(F1.92925749551
F2.79966727347
tp70
a(F1.86640043994
F3.75219882917
tp71
a(F3.07538698578
F4.31849679867
tp72
a(F-0.336436314209
F2.47641222159
tp73
a(F2.15335316296
F2.54628722433
tp74
a(F1.13590174326
F2.45246950333
tp75
a(F0.406433393955
F3.86671512439
tp76
a(F1.89347882935
F3.51682312697
tp77
a(F1.23944481208
F2.46019089664
tp78
a(F1.32314342946
F2.77011354178
tp79
a(F-0.0464384943305
F1.94768785348
tp80
a(F0.188981218718
F3.84592379266
tp81
a(F2.18258218258
F3.0942604581
tp82
a(F1.57985829178
F3.95192204215
tp83
a(F1.92364630579
F4.25059111042
tp84
a(F2.61777198034
F3.48307270169
tp85
a(F0.909332851067
F3.46267922841
tp86
a(F0.370181589157
F2.85951700256
tp87
a(F3.52125172984
F3.81832006186
tp88
a(F1.73601359591
F4.36615456632
tp89
a(F1.59084605702
F3.75397797152
tp90
a(F0.261347970028
F2.27227296712
tp91
a(F1.84082749168
F2.94572434754
tp92
a(F1.83593969575
F3.85424805189
tp93
a(F1.52085281941
F4.03285436342
tp94
a(F0.55932560553
F3.40540739124
tp95
a(F2.08447434282
F3.98206648568
tp96
a(F2.08423972862
F4.21185092392
tp97
a(F1.18239445807
F2.60966235861
tp98
a(F3.11867330647
F4.05592271142
tp99
a(F1.22812858696
F3.75677309986
tp100
a(F1.91809376962
F4.6373456014
tp101
a(F-0.278202136029
F1.93065784999
tp102
a(F0.761623658289
F3.65297286159
tp103
a(F2.23339570899
F3.97768429326
tp104
a(F1.82669198587
F2.35789481503
tp105
a(F0.83666305641
F2.69086272161
tp106
a(F1.48710747636
F2.32436349821
tp107
a(F1.94106641046
F2.73034578444
tp108
a(F1.33732585811
F3.49610714444
tp109
a(F1.94079269388
F2.64850827904
tp110
a(F1.83535316024
F3.32970787155
tp111
a(F2.94417899204
F4.28913698253
tp112
a(F0.00983567768452
F1.74551977709
tp113
a(F0.479543090246
F2.44999547901
tp114
a(F3.16391474553
F4.27216612602
tp115
a(F3.03084938934
F4.86915074296
tp116
a(F3.99266987097
F3.71058863734
tp117
a(F4.9179296391
F4.58033184093
tp118
a(F3.71187577081
F2.69391356371
tp119
a(F3.52606132102
F6.03649826463
tp120
a(F3.61253620648
F3.62013324932
tp121
a(F3.70491554942
F3.63140660542
tp122
a(F1.96048073586
F5.0438991207
tp123
a(F3.00975366214
F4.10285702652
tp124
a(F1.58805023775
F1.24339599193
tp125
a(F2.61186752286
F4.84891762474
tp126
a(F3.85856830204
F4.34286022321
tp127
a(F4.15246169527
F4.00337314661
tp128
a(F6.36397428718
F5.19509713075
tp129
a(F2.29402392961
F4.09194318222
tp130
a(F2.92597684002
F5.88708631176
tp131
a(F4.34480624041
F4.53411622435
tp132
a(F3.94125025786
F5.0253038703
tp133
a(F2.22086340024
F4.96398858523
tp134
a(F3.65318311738
F4.67140342042
tp135
a(F0.352452575787
F1.46422404064
tp136
a(F3.41702436958
F5.04745196905
tp137
a(F3.39154917724
F3.66213431851
tp138
a(F3.30898452851
F5.96370079528
tp139
a(F3.51706777653
F3.12325956469
tp140
a(F3.23271536094
F4.36431848888
tp141
a(F1.63014393623
F5.08037532455
tp142
a(F2.50181390987
F4.50006494425
tp143
a(F3.47800451151
F3.3176839885
tp144
a(F3.69717328068
F4.64439175367
tp145
a(F4.05785351739
F2.90586416234
tp146
a(F0.101784894579
F2.26717301829
tp147
a(F3.78918115112
F5.55015311894
tp148
a(F5.4211575561
F5.57578913502
tp149
a(F3.57142006718
F4.25971119447
tp150
a(F4.06536117193
F4.75194623679
tp151
a(F2.77351670961
F5.72659685349
tp152
a(F3.32931775955
F3.28093679863
tp153
a(F2.98193232775
F3.85940373007
tp154
a(F3.42390638624
F4.26491209073
tp155
a(F1.79065915433
F4.86372707322
tp156
a(F2.61783063389
F2.86781356673
tp157
a(F0.521742365122
F2.40220339766
tp158
a(F4.29371899743
F4.82062975391
tp159
a(F3.52696067547
F3.51000127657
tp160
a(F3.43536337989
F3.95026182024
tp161
a(F3.30865215839
F3.66815616404
tp162
a(F3.84687669419
F5.68603839961
tp163
a(F4.29043439857
F4.54887402277
tp164
a(F3.87006439805
F4.15031658403
tp165
a(F1.56402183299
F5.23641157701
tp166
a(F3.34501736005
F4.61551125083
tp167
a(F3.44836491704
F5.77193379411
tp168
a(F0.250188154378
F2.81003327038
tp169
a(F2.88116552701
F5.60172462975
tp170
a(F3.87176535103
F4.24649348377
tp171
a(F2.58901218913
F4.50584145069
tp172
a(F3.43536337989
F4.07315756616
tp173
a(F3.8252921874
F3.7711519613
tp174
a(F2.84534775849
F4.81288743196
tp175
a(F3.85872471151
F4.40073620614
tp176
a(F3.50664699562
F3.63876427381
tp177
a(F4.24775416457
F5.27308428465
tp178
a(F4.28290719285
F4.2606607605
tp179
a(F-0.128426383135
F1.62149270191
tp180
a(F2.7165836627
F4.22739748757
tp181
a(F3.89084730631
F5.10431092549
tp182
a(F3.88341785651
F4.73413239064
tp183
a(F4.09267417554
F2.88229298364
tp184
a(F3.7478499488
F4.42873820062
tp185
a(F5.00119813044
F4.90073070081
tp186
a(F3.14268216005
F3.5038702196
tp187
a(F1.81746382717
F4.61341665067
tp188
a(F3.11022719512
F4.19055960386
tp189
a(F2.89316995379
F4.60760738533
tp190
a(F0.756092628423
F2.08505685828
tp191
a(F2.23552678801
F4.01790993173
tp192
a(F2.28989862985
F4.36445456206
tp193
a(F3.15073724773
F3.88761613708
tp194
a(F2.6229725952
F4.70899135316
tp195
a(F3.29001988033
F4.1578997684
tp196
a(F3.18866654408
F5.26921321259
tp197
a(F4.44917045895
F4.34220562162
tp198
a(F3.98672631113
F4.65295232711
tp199
a(F3.20329082948
F5.82569185402
tp200
a(F3.93391856398
F2.56802527543
tp201
a(F1.15135890908
F1.85974782821
tp202
a(F3.65148216439
F3.60996556982
tp203
a(F5.1354952112
F5.46505920663
tp204
a(F2.97184391696
F4.57220847211
tp205
a(F5.1479688664
F5.36180483187
tp206
a(F3.04134837498
F4.26070263391
tp207
a(F2.56011553963
F4.40332148127
tp208
a(F2.86640438332
F4.74414513868
tp209
a(F3.63947773761
F4.67737601176
tp210
a(F2.86321754038
F3.59239341028
tp211
a(F4.20319701694
F4.05423192021
tp212
a(F0.48864807649
F2.47850529611
tp213
a(F3.67060322204
F5.43516231801
tp214
a(F3.04742879311
F4.59415728356
tp215
a(F2.19699140496
F4.69098935586
tp216
a(F4.80427860831
F4.98088065007
tp217
a(F5.40786275119
F5.33630975512
tp218
a(F2.33643044704
F5.16626008235
tp219
a(F4.20587552911
F4.52176484635
tp220
a(F4.03873245974
F3.79348392186
tp221
a(F3.73471155336
F2.8563050252
tp222
a(F4.3398988933
F4.8301524136
tp223
a(F2.23462743356
F2.35557448328
tp224
a(F0.876789905815
F1.26198815299
tp225
a(F5.12186803617
F4.31419913771
tp226
a(F5.04094568688
F4.80835690948
tp227
a(F4.486747834
F4.1265252274
tp228
a(F4.15834660156
F4.80702947168
tp229
a(F4.13858035485
F4.8925209668
tp230
a(F6.20770167595
F5.53289095018
tp231
a(F2.38288405948
F6.79364182977
tp232
a(F3.42502080371
F3.41713423374
tp233
a(F5.61973892884
F4.54444175429
tp234
a(F4.27213449063
F4.7691717746
tp235
a(F1.27435540568
F2.39072963996
tp236
a(F4.44213203282
F5.11778225398
tp237
a(F5.12315841429
F5.34323680507
tp238
a(F5.09244350472
F5.3638382974
tp239
a(F5.53369416942
F4.98659811625
tp240
a(F4.08524472574
F4.19133558014
tp241
a(F4.12315447092
F5.34026507785
tp242
a(F4.84273578663
F4.8299110352
tp243
a(F4.09271327791
F5.19548115015
tp244
a(F3.81240795735
F5.75721584636
tp245
a(F4.90400919631
F6.0151398483
tp246
a(F-0.157283930261
F1.89097761928
tp247
a(F5.41681719332
F4.63680859764
tp248
a(F2.62936583226
F4.49167085776
tp249
a(F4.56145290688
F4.91886143932
tp250
a(F4.19189643277
F5.31478943055
tp251
a(F5.87904627812
F6.0704230581
tp252
a(F4.33184380562
F4.05204058444
tp253
a(F3.98070454655
F5.59460706564
tp254
a(F3.51045947644
F4.6124802759
tp255
a(F4.57429803456
F5.64959135281
tp256
a(F5.00905770628
F3.36295681011
tp257
a(F0.169985288645
F1.86447497567
tp258
a(F3.50375342043
F4.81838349083
tp259
a(F4.71453867517
F5.9083609632
tp260
a(F4.05906569078
F4.23254640242
tp261
a(F4.8941945021
F5.23262419375
tp262
a(F4.99576290137
F5.44902029388
tp263
a(F3.61286857661
F4.74833055649
tp264
a(F4.16204177528
F4.33762302772
tp265
a(F4.32986913607
F5.20075988593
tp266
a(F4.33725948351
F5.44498074274
tp267
a(F2.66322848241
F4.24605187641
tp268
a(F2.22661144825
F2.47180674499
tp269
a(F4.32785536415
F4.53215674528
tp270
a(F3.02099559276
F5.42325659761
tp271
a(F3.34644459646
F6.1967463442
tp272
a(F4.33086624644
F4.78640439429
tp273
a(F3.55740186848
F5.0214499249
tp274
a(F5.37259241581
F3.90429655183
tp275
a(F5.67440403844
F6.32571620817
tp276
a(F4.53281042277
F4.51312153635
tp277
a(F4.51458871958
F4.37679587008
tp278
a(F5.32903237855
F6.32096243901
tp279
a(F0.748465711665
F2.26409180512
tp280
a(F-0.527790982921
F6.19038465746
tp281
a(F3.27916897339
F5.20617368032
tp282
a(F4.36981220435
F4.83364497974
tp283
a(F5.16898638886
F6.51051227036
tp284
a(F2.72201889177
F4.74860278829
tp285
a(F4.55417986655
F4.13672064348
tp286
a(F4.33374027044
F5.16412520808
tp287
a(F5.95680133565
F4.70704559331
tp288
a(F3.54189777981
F5.04435541678
tp289
a(F2.51950773111
F4.4390973565
tp290
a(F0.523760047279
F1.83960898424
tp291
a(F4.0911687344
F4.87802003509
tp292
a(F3.27107478334
F5.9809573773
tp293
a(F5.18415810741
F6.1414195365
tp294
a(F3.28870995103
F3.75659136436
tp295
a(F4.3102984012
F5.6060910644
tp296
a(F5.11527928727
F6.20722850094
tp297
a(F4.21561201859
F4.21906924093
tp298
a(F3.94449575436
F5.60191034395
tp299
a(F3.76159443094
F4.44413687091
tp300
a(F5.57443883623
F4.68290487333
tp301
a(F0.0957103418063
F2.0373961777
tp302
a(F3.80857592534
F6.11124735565
tp303
a(F3.6743766005
F4.98489757343
tp304
a(F6.50478191212
F6.319744766
tp305
a(F4.14831684433
F7.68790329437
tp306
a(F4.39411432568
F5.03862992902
tp307
a(F4.76943839897
F5.61852547194
tp308
a(F4.47310110778
F3.90846737363
tp309
a(F4.08354377276
F4.66002820063
tp310
a(F5.13289490377
F5.32271908907
tp311
a(F4.87521030274
F4.07218173988
tp312
a(F0.997745258832
F1.75140634717
tp313
a(F3.47771124376
F4.12036312299
tp314
a(F6.60056316102
F4.82283425302
tp315
a(F3.82754057352
F3.9214382642
tp316
a(F4.55748401659
F6.06173776064
tp317
a(F5.23049441275
F4.87004599723
tp318
a(F4.32187270194
F4.65005905625
tp319
a(F4.03482222301
F4.54174155027
tp320
a(F3.45509052423
F4.05403344445
tp321
a(F4.32916529346
F4.08132738696
tp322
a(F5.42831328933
F4.17955080494
tp323
a(F-0.490394026192
F2.09976236411
tp324
a(F3.00556970883
F4.65882872278
tp325
a(F5.79519125127
F4.73839033902
tp326
a(F6.95443958581
F6.27789254559
tp327
a(F4.62215933224
F4.73502704928
tp328
a(F3.98655035047
F4.41263503779
tp329
a(F4.78881362201
F4.32407143583
tp330
a(F5.15293486705
F5.64767089246
tp331
a(F1.88223689873
F4.32862966365
tp332
a(F4.66837833048
F4.86795190134
tp333
a(F2.43917191733
F4.55854194893
tp334
a(F0.759254054826
F2.54494503329
tp335
a(F0.709056390701
F2.45191615976
tp336
a(F2.85363746037
F5.84209539003
tp337
a(F1.20822352685
F6.94216275648
tp338
a(F3.51339215399
F5.48976539501
tp339
a(F5.39273013501
F6.84807438074
tp340
a(F5.2227716952
F7.10732671241
tp341
a(F4.32390602505
F6.10895612083
tp342
a(F3.6415306119
F6.90354465732
tp343
a(F5.54128002869
F5.93528248175
tp344
a(F6.04347173295
F6.40833979744
tp345
a(F4.6922112234
F6.5505710266
tp346
a(F-0.46562255915
F2.06041204116
tp347
a(F5.12030394148
F4.22557280237
tp348
a(F2.62158446115
F7.62071418176
tp349
a(F5.66359223385
F6.93187310594
tp350
a(F4.11097408348
F5.18398391308
tp351
a(F2.51956638466
F5.94910885471
tp352
a(F4.49650387466
F5.51084045653
tp353
a(F2.91403106679
F5.9208394401
tp354
a(F4.66290399905
F5.52513612094
tp355
a(F5.04411297864
F6.23830178453
tp356
a(F2.50060173648
F5.55800946433
tp357
a(F2.26317216175
F2.33550544168
tp358
a(F3.2853862498
F7.66823639043
tp359
a(F2.27541120274
F6.37879230595
tp360
a(F4.30992692871
F5.52500561222
tp361
a(F5.03398546548
F5.79799334142
tp362
a(F3.32051972689
F4.59896184995
tp363
a(F4.54485395193
F5.63562182132
tp364
a(F4.90623803125
F6.51020320084
tp365
a(F4.62929551428
F5.94046620102
tp366
a(F5.231159153
F6.34659521192
tp367
a(F4.15512065625
F3.78801379069
tp368
a(F-0.744859563935
F2.32412389813
tp369
a(F4.38254002493
F5.75797604934
tp370
a(F2.98871658849
F5.74332277655
tp371
a(F2.76769045687
F5.26604455709
tp372
a(F3.19685849005
F6.49449120829
tp373
a(F4.49804841817
F5.83220275502
tp374
a(F3.60778526885
F5.57889178511
tp375
a(F5.71739709137
F5.54432298729
tp376
a(F5.33591439521
F6.46450491998
tp377
a(F4.78850080307
F6.55873757706
tp378
a(F3.99012821709
F5.74067928249
tp379
a(F0.500558657594
F2.18855645924
tp380
a(F3.308397993
F7.44083793958
tp381
a(F3.46263728113
F5.92926506786
tp382
a(F3.18434573249
F6.39021687856
tp383
a(F3.61584035653
F6.01814177071
tp384
a(F3.50928640542
F5.3463316482
tp385
a(F4.51769735778
F5.91017290199
tp386
a(F1.81230231467
F6.0156577856
tp387
a(F3.38801041299
F6.99523379631
tp388
a(F4.41180814692
F6.42761153572
tp389
a(F3.65103248717
F5.80881936964
tp390
a(F0.905274025333
F2.14157442229
tp391
a(F2.91622079936
F5.98117434856
tp392
a(F2.72184293112
F6.25712554434
tp393
a(F4.07867552802
F5.1750929912
tp394
a(F3.58101969838
F5.91847541291
tp395
a(F4.49175293703
F5.58274564679
tp396
a(F3.26290238856
F5.92093663335
tp397
a(F4.73882124532
F5.23297965185
tp398
a(F5.39624934808
F5.72149953593
tp399
a(F4.54065044743
F4.76964159136
tp400
a(F5.13614040026
F5.26753183345
tp401
a(F-0.176801876939
F1.81993422206
tp402
a(F3.89952803187
F5.29577572802
tp403
a(F4.17140679226
F7.1864906135
tp404
a(F3.71531677914
F5.51614005632
tp405
a(F3.41483463701
F6.70286644425
tp406
a(F3.26096682137
F4.98089303731
tp407
a(F4.0426231453
F5.88301210042
tp408
a(F4.21496682953
F5.66393615981
tp409
a(F5.34805568028
F6.33596347972
tp410
a(F3.36501822097
F4.78478297597
tp411
a(F5.12004977609
F6.27621769513
tp412
a(F1.1833759275
F2.81804837304
tp413
a(F5.16789152258
F5.06611363877
tp414
a(F4.28194918485
F5.12089424066
tp415
a(F5.07807338471
F5.45789024856
tp416
a(F4.41777125794
F5.10579293118
tp417
a(F4.09799209751
F7.27619898156
tp418
a(F3.33099916135
F6.69565451589
tp419
a(F3.1785781333
F7.35941185758
tp420
a(F2.67486143671
F5.24236539555
tp421
a(F4.48017863628
F5.6660068216
tp422
a(F4.83037943854
F7.13805287651
tp423
a(F0.501106090738
F1.43265396693
tp424
a(F4.4694841388
F6.37357276021
tp425
a(F2.87674695949
F5.90042765818
tp426
a(F2.7375620828
F5.96191051069
tp427
a(F3.96510270197
F5.880413501
tp428
a(F4.23142892619
F5.55782367545
tp429
a(F4.23475262742
F6.03320547765
tp430
a(F4.50260384397
F6.00651021221
tp431
a(F5.41161657846
F5.34154872027
tp432
a(F5.62288666941
F7.77544406643
tp433
a(F5.59418553176
F5.75679038635
tp434
a(F1.99326807091
F2.15710155251
tp435
a(F2.27263493465
F6.08173893514
tp436
a(F3.85874426269
F6.06497121663
tp437
a(F3.86423814531
F6.83456638133
tp438
a(F4.51714992464
F6.27508331651
tp439
a(F4.18327436076
F4.38671683816
tp440
a(F3.73144650569
F5.75151048339
tp441
a(F5.21847043478
F6.13039226638
tp442
a(F2.74221526452
F5.65138318471
tp443
a(F3.62010251457
F5.34256117733
tp444
a(F3.65185363688
F6.34206416321
tp445
a(F0.731761180321
F2.01088810077
tp446
a(F0.836160590989
F2.49160083364
tp447
a(F0.634935898214
F1.54234914919
tp448
a(F0.475099106193
F1.79439780274
tp449
a(F-0.185365295395
F1.72072068865
tp450
a(F0.721684500247
F2.55081792324
tp451
a(F0.84965677309
F1.07867592428
tp452
a(F1.04712959371
F1.90465015274
tp453
a(F0.329235545155
F2.55186706232
tp454
a(F1.1906782946
F1.63784756536
tp455
a(F0.246375673558
F2.24006474625
tp456
a(F0.930102073501
F1.87483082949
tp457
a(F-0.222217321533
F2.12831616786
tp458
a(F-0.754729001461
F2.43657652049
tp459
a(F-0.287635191136
F2.28548373337
tp460
a(F-0.117159035974
F2.28435024502
tp461
a(F0.705564549294
F2.36918441247
tp462
a(F0.694424284828
F2.57338149034
tp463
a(F0.0364585245152
F2.03895792914
tp464
a(F1.37530989778
F1.81112730089
tp465
a(F-0.065446155114
F3.32688289687
tp466
a(F-0.0130919954288
F3.06704621221
tp467
a(F-0.198972919243
F1.38469575543
tp468
a(F0.0667393978144
F2.80150800316
tp469
a(F0.574563798098
F1.98229497819
tp470
a(F0.588593727514
F2.12329229097
tp471
a(F1.12572926239
F1.97728912743
tp472
a(F-0.0489273600142
F1.42234269783
tp473
a(F0.00618547168959
F2.35464610278
tp474
a(F0.938855138439
F1.13825236995
tp475
a(F0.213899202331
F1.31805718596
tp476
a(F0.521273136714
F1.9599539319
tp477
a(F1.15194348948
F1.774572588
tp478
a(F0.914032955626
F2.61837624762
tp479
a(F0.907000394853
F1.33243902923
tp480
a(F-0.621899628054
F1.82430416324
tp481
a(F-0.23287662688
F2.22068009226
tp482
a(F0.377628635025
F2.23615189219
tp483
a(F-0.0376111348945
F1.88987674325
tp484
a(F-0.661611014806
F1.47146230459
tp485
a(F0.340352348201
F1.38682649657
tp486
a(F0.0339461974111
F1.80447142472
tp487
a(F1.11505627121
F2.29220001296
tp488
a(F-0.347593783717
F1.89229373835
tp489
a(F0.910238070872
F2.20432586155
tp490
a(F0.630847745705
F2.25147647375
tp491
a(F-0.746091288507
F2.11641708431
tp492
a(F0.133060923128
F1.26565495829
tp493
a(F1.0327594737
F2.66889983725
tp494
a(F2.60664735682
F2.64341190756
tp495
a(F0.662614508964
F1.71044066195
tp496
a(F0.237331295983
F2.65854914699
tp497
a(F0.301975329736
F1.54437892663
tp498
a(F0.99602084443
F2.14667783917
tp499
a(F0.436399493197
F2.43632835815
tp500
a.