ccopy_reg
_reconstructor
p0
(csklearn.mixture.gmm
GMM
p1
c__builtin__
object
p2
Ntp3
Rp4
(dp5
S'min_covar'
p6
F0.001
sS'verbose'
p7
I0
sS'covariance_type'
p8
S'diag'
p9
sS'converged_'
p10
I01
sS'n_iter'
p11
I100
sS'covars_'
p12
cnumpy.core.multiarray
_reconstruct
p13
(cnumpy
ndarray
p14
(I0
tp15
S'b'
p16
tp17
Rp18
(I1
(I3
I1
tp19
cnumpy
dtype
p20
(S'f8'
p21
I0
I1
tp22
Rp23
(I3
S'<'
p24
NNNI-1
I-1
I0
tp25
bI00
S'5\xb7\x7f\xc1\x0b3\x07@n\xca\xdb\xaa|b\xdf?\xd5\xd7)\xc4\x9c\x8e\xee?'
p26
tp27
bsS'weights_'
p28
g13
(g14
(I0
tp29
g16
tp30
Rp31
(I1
(I3
tp32
g23
I00
S'\xb3\xd7\xe0x\xb0\x7f\xd7?\xdb\xbbX\xe8\x88\x08\xcf?l\xca\xf2\x12\x0b\xfc\xd8?'
p33
tp34
bsS'random_state'
p35
NsS'thresh'
p36
NsS'n_components'
p37
I3
sS'tol'
p38
F0.001
sS'params'
p39
S'wmc'
p40
sS'means_'
p41
g13
(g14
(I0
tp42
g16
tp43
Rp44
(I1
(I3
I1
tp45
g23
I00
S'\x1eV\xfb\x97\x885\x11@R\xed\xbdW6\x8a\xf0?\x10\xea\x9f>&\n\x18@'
p46
tp47
bsS'init_params'
p48
g40
sS'n_init'
p49
I1
sb.