(lp0
(lp1
F0.323067146701
aa(lp2
F-0.00913874608666
aa(lp3
F0.163361347611
aa(lp4
F1.26862886398
aa(lp5
F1.13186051359
aa(lp6
F-0.0971288482837
aa(lp7
F0.746117614504
aa(lp8
F1.72371590137
aa(lp9
F1.82657467877
aa(lp10
F1.3718317422
aa(lp11
F1.52693323753
aa(lp12
F2.74426813881
aa(lp13
F1.83294836465
aa(lp14
F-0.0591643597944
aa(lp15
F0.604379353225
aa(lp16
F2.47567397728
aa(lp17
F1.16018626852
aa(lp18
F1.24130803989
aa(lp19
F3.17353392791
aa(lp20
F3.16037598128
aa(lp21
F3.36372784284
aa(lp22
F1.64064292187
aa(lp23
F1.88820000976
aa(lp24
F1.17654083368
aa(lp25
F1.33808639915
aa(lp26
F1.7561708663
aa(lp27
F1.76258365455
aa(lp28
F1.44721133092
aa(lp29
F1.51995346496
aa(lp30
F1.84921494948
aa(lp31
F1.85754375373
aa(lp32
F1.35399128708
aa(lp33
F1.57131442451
aa(lp34
F1.71186788406
aa(lp35
F-0.685429830872
aa(lp36
F1.87455328354
aa(lp37
F2.78511056154
aa(lp38
F2.02937910718
aa(lp39
F2.37256103449
aa(lp40
F3.92963685475
aa(lp41
F1.51987526022
aa(lp42
F1.57258525145
aa(lp43
F3.30405763022
aa(lp44
F1.0288531472
aa(lp45
F2.3646428051
aa(lp46
F1.57217467659
aa(lp47
F0.610719802096
aa(lp48
F2.83887631669
aa(lp49
F1.49817344633
aa(lp50
F2.87449857337
aa(lp51
F2.14711633536
aa(lp52
F1.46337820471
aa(lp53
F1.02509345458
aa(lp54
F2.62310945348
aa(lp55
F1.04094359919
aa(lp56
F1.01410568934
aa(lp57
F2.8242324801
aa(lp58
F1.16914853112
aa(lp59
F2.27505928143
aa(lp60
F2.82284434606
aa(lp61
F0.624951108704
aa(lp62
F0.355731309292
aa(lp63
F1.74747058956
aa(lp64
F2.06095426884
aa(lp65
F2.32769106793
aa(lp66
F-0.160564618884
aa(lp67
F2.03399318653
aa(lp68
F1.49107636665
aa(lp69
F0.645575652378
aa(lp70
F1.92925749551
aa(lp71
F1.86640043994
aa(lp72
F3.07538698578
aa(lp73
F-0.336436314209
aa(lp74
F2.15335316296
aa(lp75
F1.13590174326
aa(lp76
F0.406433393955
aa(lp77
F1.89347882935
aa(lp78
F1.23944481208
aa(lp79
F1.32314342946
aa(lp80
F-0.0464384943305
aa(lp81
F0.188981218718
aa(lp82
F2.18258218258
aa(lp83
F1.57985829178
aa(lp84
F1.92364630579
aa(lp85
F2.61777198034
aa(lp86
F0.909332851067
aa(lp87
F0.370181589157
aa(lp88
F3.52125172984
aa(lp89
F1.73601359591
aa(lp90
F1.59084605702
aa(lp91
F0.261347970028
aa(lp92
F1.84082749168
aa(lp93
F1.83593969575
aa(lp94
F1.52085281941
aa(lp95
F0.55932560553
aa(lp96
F2.08447434282
aa(lp97
F2.08423972862
aa(lp98
F1.18239445807
aa(lp99
F3.11867330647
aa(lp100
F1.22812858696
aa(lp101
F1.91809376962
aa(lp102
F-0.278202136029
aa(lp103
F0.761623658289
aa(lp104
F2.23339570899
aa(lp105
F1.82669198587
aa(lp106
F0.83666305641
aa(lp107
F1.48710747636
aa(lp108
F1.94106641046
aa(lp109
F1.33732585811
aa(lp110
F1.94079269388
aa(lp111
F1.83535316024
aa(lp112
F2.94417899204
aa(lp113
F0.00983567768452
aa(lp114
F0.479543090246
aa(lp115
F3.16391474553
aa(lp116
F3.03084938934
aa(lp117
F3.99266987097
aa(lp118
F4.9179296391
aa(lp119
F3.71187577081
aa(lp120
F3.52606132102
aa(lp121
F3.61253620648
aa(lp122
F3.70491554942
aa(lp123
F1.96048073586
aa(lp124
F3.00975366214
aa(lp125
F1.58805023775
aa(lp126
F2.61186752286
aa(lp127
F3.85856830204
aa(lp128
F4.15246169527
aa(lp129
F6.36397428718
aa(lp130
F2.29402392961
aa(lp131
F2.92597684002
aa(lp132
F4.34480624041
aa(lp133
F3.94125025786
aa(lp134
F2.22086340024
aa(lp135
F3.65318311738
aa(lp136
F0.352452575787
aa(lp137
F3.41702436958
aa(lp138
F3.39154917724
aa(lp139
F3.30898452851
aa(lp140
F3.51706777653
aa(lp141
F3.23271536094
aa(lp142
F1.63014393623
aa(lp143
F2.50181390987
aa(lp144
F3.47800451151
aa(lp145
F3.69717328068
aa(lp146
F4.05785351739
aa(lp147
F0.101784894579
aa(lp148
F3.78918115112
aa(lp149
F5.4211575561
aa(lp150
F3.57142006718
aa(lp151
F4.06536117193
aa(lp152
F2.77351670961
aa(lp153
F3.32931775955
aa(lp154
F2.98193232775
aa(lp155
F3.42390638624
aa(lp156
F1.79065915433
aa(lp157
F2.61783063389
aa(lp158
F0.521742365122
aa(lp159
F4.29371899743
aa(lp160
F3.52696067547
aa(lp161
F3.43536337989
aa(lp162
F3.30865215839
aa(lp163
F3.84687669419
aa(lp164
F4.29043439857
aa(lp165
F3.87006439805
aa(lp166
F1.56402183299
aa(lp167
F3.34501736005
aa(lp168
F3.44836491704
aa(lp169
F0.250188154378
aa(lp170
F2.88116552701
aa(lp171
F3.87176535103
aa(lp172
F2.58901218913
aa(lp173
F3.43536337989
aa(lp174
F3.8252921874
aa(lp175
F2.84534775849
aa(lp176
F3.85872471151
aa(lp177
F3.50664699562
aa(lp178
F4.24775416457
aa(lp179
F4.28290719285
aa(lp180
F-0.128426383135
aa(lp181
F2.7165836627
aa(lp182
F3.89084730631
aa(lp183
F3.88341785651
aa(lp184
F4.09267417554
aa(lp185
F3.7478499488
aa(lp186
F5.00119813044
aa(lp187
F3.14268216005
aa(lp188
F1.81746382717
aa(lp189
F3.11022719512
aa(lp190
F2.89316995379
aa(lp191
F0.756092628423
aa(lp192
F2.23552678801
aa(lp193
F2.28989862985
aa(lp194
F3.15073724773
aa(lp195
F2.6229725952
aa(lp196
F3.29001988033
aa(lp197
F3.18866654408
aa(lp198
F4.44917045895
aa(lp199
F3.98672631113
aa(lp200
F3.20329082948
aa(lp201
F3.93391856398
aa(lp202
F1.15135890908
aa(lp203
F3.65148216439
aa(lp204
F5.1354952112
aa(lp205
F2.97184391696
aa(lp206
F5.1479688664
aa(lp207
F3.04134837498
aa(lp208
F2.56011553963
aa(lp209
F2.86640438332
aa(lp210
F3.63947773761
aa(lp211
F2.86321754038
aa(lp212
F4.20319701694
aa(lp213
F0.48864807649
aa(lp214
F3.67060322204
aa(lp215
F3.04742879311
aa(lp216
F2.19699140496
aa(lp217
F4.80427860831
aa(lp218
F5.40786275119
aa(lp219
F2.33643044704
aa(lp220
F4.20587552911
aa(lp221
F4.03873245974
aa(lp222
F3.73471155336
aa(lp223
F4.3398988933
aa(lp224
F2.23462743356
aa(lp225
F0.876789905815
aa(lp226
F5.12186803617
aa(lp227
F5.04094568688
aa(lp228
F4.486747834
aa(lp229
F4.15834660156
aa(lp230
F4.13858035485
aa(lp231
F6.20770167595
aa(lp232
F2.38288405948
aa(lp233
F3.42502080371
aa(lp234
F5.61973892884
aa(lp235
F4.27213449063
aa(lp236
F1.27435540568
aa(lp237
F4.44213203282
aa(lp238
F5.12315841429
aa(lp239
F5.09244350472
aa(lp240
F5.53369416942
aa(lp241
F4.08524472574
aa(lp242
F4.12315447092
aa(lp243
F4.84273578663
aa(lp244
F4.09271327791
aa(lp245
F3.81240795735
aa(lp246
F4.90400919631
aa(lp247
F-0.157283930261
aa(lp248
F5.41681719332
aa(lp249
F2.62936583226
aa(lp250
F4.56145290688
aa(lp251
F4.19189643277
aa(lp252
F5.87904627812
aa(lp253
F4.33184380562
aa(lp254
F3.98070454655
aa(lp255
F3.51045947644
aa(lp256
F4.57429803456
aa(lp257
F5.00905770628
aa(lp258
F0.169985288645
aa(lp259
F3.50375342043
aa(lp260
F4.71453867517
aa(lp261
F4.05906569078
aa(lp262
F4.8941945021
aa(lp263
F4.99576290137
aa(lp264
F3.61286857661
aa(lp265
F4.16204177528
aa(lp266
F4.32986913607
aa(lp267
F4.33725948351
aa(lp268
F2.66322848241
aa(lp269
F2.22661144825
aa(lp270
F4.32785536415
aa(lp271
F3.02099559276
aa(lp272
F3.34644459646
aa(lp273
F4.33086624644
aa(lp274
F3.55740186848
aa(lp275
F5.37259241581
aa(lp276
F5.67440403844
aa(lp277
F4.53281042277
aa(lp278
F4.51458871958
aa(lp279
F5.32903237855
aa(lp280
F0.748465711665
aa(lp281
F-0.527790982921
aa(lp282
F3.27916897339
aa(lp283
F4.36981220435
aa(lp284
F5.16898638886
aa(lp285
F2.72201889177
aa(lp286
F4.55417986655
aa(lp287
F4.33374027044
aa(lp288
F5.95680133565
aa(lp289
F3.54189777981
aa(lp290
F2.51950773111
aa(lp291
F0.523760047279
aa(lp292
F4.0911687344
aa(lp293
F3.27107478334
aa(lp294
F5.18415810741
aa(lp295
F3.28870995103
aa(lp296
F4.3102984012
aa(lp297
F5.11527928727
aa(lp298
F4.21561201859
aa(lp299
F3.94449575436
aa(lp300
F3.76159443094
aa(lp301
F5.57443883623
aa(lp302
F0.0957103418063
aa(lp303
F3.80857592534
aa(lp304
F3.6743766005
aa(lp305
F6.50478191212
aa(lp306
F4.14831684433
aa(lp307
F4.39411432568
aa(lp308
F4.76943839897
aa(lp309
F4.47310110778
aa(lp310
F4.08354377276
aa(lp311
F5.13289490377
aa(lp312
F4.87521030274
aa(lp313
F0.997745258832
aa(lp314
F3.47771124376
aa(lp315
F6.60056316102
aa(lp316
F3.82754057352
aa(lp317
F4.55748401659
aa(lp318
F5.23049441275
aa(lp319
F4.32187270194
aa(lp320
F4.03482222301
aa(lp321
F3.45509052423
aa(lp322
F4.32916529346
aa(lp323
F5.42831328933
aa(lp324
F-0.490394026192
aa(lp325
F3.00556970883
aa(lp326
F5.79519125127
aa(lp327
F6.95443958581
aa(lp328
F4.62215933224
aa(lp329
F3.98655035047
aa(lp330
F4.78881362201
aa(lp331
F5.15293486705
aa(lp332
F1.88223689873
aa(lp333
F4.66837833048
aa(lp334
F2.43917191733
aa(lp335
F0.759254054826
aa(lp336
F0.709056390701
aa(lp337
F2.85363746037
aa(lp338
F1.20822352685
aa(lp339
F3.51339215399
aa(lp340
F5.39273013501
aa(lp341
F5.2227716952
aa(lp342
F4.32390602505
aa(lp343
F3.6415306119
aa(lp344
F5.54128002869
aa(lp345
F6.04347173295
aa(lp346
F4.6922112234
aa(lp347
F-0.46562255915
aa(lp348
F5.12030394148
aa(lp349
F2.62158446115
aa(lp350
F5.66359223385
aa(lp351
F4.11097408348
aa(lp352
F2.51956638466
aa(lp353
F4.49650387466
aa(lp354
F2.91403106679
aa(lp355
F4.66290399905
aa(lp356
F5.04411297864
aa(lp357
F2.50060173648
aa(lp358
F2.26317216175
aa(lp359
F3.2853862498
aa(lp360
F2.27541120274
aa(lp361
F4.30992692871
aa(lp362
F5.03398546548
aa(lp363
F3.32051972689
aa(lp364
F4.54485395193
aa(lp365
F4.90623803125
aa(lp366
F4.62929551428
aa(lp367
F5.231159153
aa(lp368
F4.15512065625
aa(lp369
F-0.744859563935
aa(lp370
F4.38254002493
aa(lp371
F2.98871658849
aa(lp372
F2.76769045687
aa(lp373
F3.19685849005
aa(lp374
F4.49804841817
aa(lp375
F3.60778526885
aa(lp376
F5.71739709137
aa(lp377
F5.33591439521
aa(lp378
F4.78850080307
aa(lp379
F3.99012821709
aa(lp380
F0.500558657594
aa(lp381
F3.308397993
aa(lp382
F3.46263728113
aa(lp383
F3.18434573249
aa(lp384
F3.61584035653
aa(lp385
F3.50928640542
aa(lp386
F4.51769735778
aa(lp387
F1.81230231467
aa(lp388
F3.38801041299
aa(lp389
F4.41180814692
aa(lp390
F3.65103248717
aa(lp391
F0.905274025333
aa(lp392
F2.91622079936
aa(lp393
F2.72184293112
aa(lp394
F4.07867552802
aa(lp395
F3.58101969838
aa(lp396
F4.49175293703
aa(lp397
F3.26290238856
aa(lp398
F4.73882124532
aa(lp399
F5.39624934808
aa(lp400
F4.54065044743
aa(lp401
F5.13614040026
aa(lp402
F-0.176801876939
aa(lp403
F3.89952803187
aa(lp404
F4.17140679226
aa(lp405
F3.71531677914
aa(lp406
F3.41483463701
aa(lp407
F3.26096682137
aa(lp408
F4.0426231453
aa(lp409
F4.21496682953
aa(lp410
F5.34805568028
aa(lp411
F3.36501822097
aa(lp412
F5.12004977609
aa(lp413
F1.1833759275
aa(lp414
F5.16789152258
aa(lp415
F4.28194918485
aa(lp416
F5.07807338471
aa(lp417
F4.41777125794
aa(lp418
F4.09799209751
aa(lp419
F3.33099916135
aa(lp420
F3.1785781333
aa(lp421
F2.67486143671
aa(lp422
F4.48017863628
aa(lp423
F4.83037943854
aa(lp424
F0.501106090738
aa(lp425
F4.4694841388
aa(lp426
F2.87674695949
aa(lp427
F2.7375620828
aa(lp428
F3.96510270197
aa(lp429
F4.23142892619
aa(lp430
F4.23475262742
aa(lp431
F4.50260384397
aa(lp432
F5.41161657846
aa(lp433
F5.62288666941
aa(lp434
F5.59418553176
aa(lp435
F1.99326807091
aa(lp436
F2.27263493465
aa(lp437
F3.85874426269
aa(lp438
F3.86423814531
aa(lp439
F4.51714992464
aa(lp440
F4.18327436076
aa(lp441
F3.73144650569
aa(lp442
F5.21847043478
aa(lp443
F2.74221526452
aa(lp444
F3.62010251457
aa(lp445
F3.65185363688
aa(lp446
F0.731761180321
aa(lp447
F0.836160590989
aa(lp448
F0.634935898214
aa(lp449
F0.475099106193
aa(lp450
F-0.185365295395
aa(lp451
F0.721684500247
aa(lp452
F0.84965677309
aa(lp453
F1.04712959371
aa(lp454
F0.329235545155
aa(lp455
F1.1906782946
aa(lp456
F0.246375673558
aa(lp457
F0.930102073501
aa(lp458
F-0.222217321533
aa(lp459
F-0.754729001461
aa(lp460
F-0.287635191136
aa(lp461
F-0.117159035974
aa(lp462
F0.705564549294
aa(lp463
F0.694424284828
aa(lp464
F0.0364585245152
aa(lp465
F1.37530989778
aa(lp466
F-0.065446155114
aa(lp467
F-0.0130919954288
aa(lp468
F-0.198972919243
aa(lp469
F0.0667393978144
aa(lp470
F0.574563798098
aa(lp471
F0.588593727514
aa(lp472
F1.12572926239
aa(lp473
F-0.0489273600142
aa(lp474
F0.00618547168959
aa(lp475
F0.938855138439
aa(lp476
F0.213899202331
aa(lp477
F0.521273136714
aa(lp478
F1.15194348948
aa(lp479
F0.914032955626
aa(lp480
F0.907000394853
aa(lp481
F-0.621899628054
aa(lp482
F-0.23287662688
aa(lp483
F0.377628635025
aa(lp484
F-0.0376111348945
aa(lp485
F-0.661611014806
aa(lp486
F0.340352348201
aa(lp487
F0.0339461974111
aa(lp488
F1.11505627121
aa(lp489
F-0.347593783717
aa(lp490
F0.910238070872
aa(lp491
F0.630847745705
aa(lp492
F-0.746091288507
aa(lp493
F0.133060923128
aa(lp494
F1.0327594737
aa(lp495
F2.60664735682
aa(lp496
F0.662614508964
aa(lp497
F0.237331295983
aa(lp498
F0.301975329736
aa(lp499
F0.99602084443
aa(lp500
F0.436399493197
aa.