(lp0
(lp1
F1.82329453732
aa(lp2
F0.927531740568
aa(lp3
F0.940905480791
aa(lp4
F2.24144854479
aa(lp5
F3.50738154881
aa(lp6
F3.13016269693
aa(lp7
F3.19899141131
aa(lp8
F3.40546391951
aa(lp9
F3.2657623856
aa(lp10
F3.69630000217
aa(lp11
F3.40088800267
aa(lp12
F3.39253207792
aa(lp13
F3.74539067039
aa(lp14
F1.83733659047
aa(lp15
F3.48902248467
aa(lp16
F3.41928063118
aa(lp17
F2.07854449685
aa(lp18
F2.44771784082
aa(lp19
F3.32457526463
aa(lp20
F4.09362643879
aa(lp21
F3.33850043578
aa(lp22
F2.76856157747
aa(lp23
F3.29439932531
aa(lp24
F2.71598593991
aa(lp25
F1.19867209044
aa(lp26
F2.86093108965
aa(lp27
F2.208496881
aa(lp28
F3.56303352132
aa(lp29
F2.66805041146
aa(lp30
F4.11720552095
aa(lp31
F3.56278222294
aa(lp32
F2.33838612662
aa(lp33
F3.62193459592
aa(lp34
F3.23730485936
aa(lp35
F3.87633567077
aa(lp36
F1.7624499768
aa(lp37
F4.05447671371
aa(lp38
F3.69303881209
aa(lp39
F2.88564604462
aa(lp40
F2.76830730896
aa(lp41
F3.06154393779
aa(lp42
F3.50126907334
aa(lp43
F2.80163186519
aa(lp44
F3.22004844511
aa(lp45
F3.24636727045
aa(lp46
F2.71106024473
aa(lp47
F1.57178378373
aa(lp48
F3.31674889103
aa(lp49
F2.6768295192
aa(lp50
F4.38421133059
aa(lp51
F2.95178970568
aa(lp52
F3.87364841261
aa(lp53
F3.34046121279
aa(lp54
F3.73731721788
aa(lp55
F2.50516801181
aa(lp56
F2.97361078688
aa(lp57
F3.22143195039
aa(lp58
F1.91159453715
aa(lp59
F3.71609032498
aa(lp60
F3.66346979059
aa(lp61
F3.68071593079
aa(lp62
F3.411545809
aa(lp63
F3.27986479632
aa(lp64
F2.90600577671
aa(lp65
F3.28777545391
aa(lp66
F3.74875896098
aa(lp67
F3.4582744176
aa(lp68
F3.38711301605
aa(lp69
F1.13421432493
aa(lp70
F2.07249959758
aa(lp71
F4.19947104744
aa(lp72
F3.67642158436
aa(lp73
F1.89111003479
aa(lp74
F2.8733075327
aa(lp75
F3.56965538143
aa(lp76
F2.9539538686
aa(lp77
F3.08976909176
aa(lp78
F2.36954635977
aa(lp79
F4.07198673387
aa(lp80
F1.06619191208
aa(lp81
F3.54828999136
aa(lp82
F1.37130191225
aa(lp83
F3.91564739939
aa(lp84
F4.73445895031
aa(lp85
F2.97623566615
aa(lp86
F2.61414180818
aa(lp87
F4.23353261546
aa(lp88
F3.42049185982
aa(lp89
F2.71314038993
aa(lp90
F2.17910891417
aa(lp91
F1.61115198821
aa(lp92
F3.55842836837
aa(lp93
F2.96556376469
aa(lp94
F2.79207431827
aa(lp95
F4.00358678404
aa(lp96
F4.06452975997
aa(lp97
F2.4988362743
aa(lp98
F2.75311762232
aa(lp99
F3.56238330546
aa(lp100
F3.71355463724
aa(lp101
F3.88489366697
aa(lp102
F1.71844565415
aa(lp103
F2.83171334131
aa(lp104
F3.0305018276
aa(lp105
F3.10627718877
aa(lp106
F3.02879390061
aa(lp107
F2.20429258506
aa(lp108
F2.9954686858
aa(lp109
F2.16759066821
aa(lp110
F3.49864233387
aa(lp111
F3.98771362443
aa(lp112
F3.48308483748
aa(lp113
F1.46640505844
aa(lp114
F1.1003874556
aa(lp115
F3.36588641934
aa(lp116
F4.1960503726
aa(lp117
F3.69468592777
aa(lp118
F4.16825444793
aa(lp119
F3.18586356245
aa(lp120
F3.97824857133
aa(lp121
F4.96510565909
aa(lp122
F4.45325582864
aa(lp123
F4.04326838023
aa(lp124
F5.40609509617
aa(lp125
F1.9917017028
aa(lp126
F4.62866319778
aa(lp127
F3.93531935025
aa(lp128
F4.41866752447
aa(lp129
F4.57488416735
aa(lp130
F4.87924136515
aa(lp131
F4.48116610209
aa(lp132
F3.67662057116
aa(lp133
F4.92295948382
aa(lp134
F4.54121100083
aa(lp135
F4.75935009075
aa(lp136
F1.29902915922
aa(lp137
F5.68628020645
aa(lp138
F4.32697718549
aa(lp139
F4.37378656455
aa(lp140
F4.47069622866
aa(lp141
F3.8244403709
aa(lp142
F5.91718543404
aa(lp143
F6.42507270883
aa(lp144
F4.61581525018
aa(lp145
F3.68475524463
aa(lp146
F4.47625581711
aa(lp147
F1.61291564756
aa(lp148
F4.82413319479
aa(lp149
F4.0020980109
aa(lp150
F4.49770058985
aa(lp151
F5.00454523947
aa(lp152
F5.17503972069
aa(lp153
F4.95798078099
aa(lp154
F3.84440640012
aa(lp155
F3.04512122698
aa(lp156
F3.61806338
aa(lp157
F5.0177435527
aa(lp158
F1.82631271057
aa(lp159
F5.5155317352
aa(lp160
F5.34772933266
aa(lp161
F3.745005894
aa(lp162
F5.59451916107
aa(lp163
F4.65334231333
aa(lp164
F4.82113358022
aa(lp165
F4.55753019147
aa(lp166
F4.47113043264
aa(lp167
F3.40731791835
aa(lp168
F4.07663294891
aa(lp169
F2.12914041881
aa(lp170
F4.95988358516
aa(lp171
F5.14203194794
aa(lp172
F3.67286393679
aa(lp173
F3.78462243352
aa(lp174
F4.9564881998
aa(lp175
F4.09539526059
aa(lp176
F4.63653932615
aa(lp177
F4.10456402534
aa(lp178
F4.18381747151
aa(lp179
F4.81976820522
aa(lp180
F1.80393501164
aa(lp181
F5.10813983451
aa(lp182
F3.38657707927
aa(lp183
F5.30614297572
aa(lp184
F4.13015018278
aa(lp185
F3.96674911202
aa(lp186
F3.77063068844
aa(lp187
F3.92476338934
aa(lp188
F5.57841808702
aa(lp189
F4.41721238877
aa(lp190
F4.96895450886
aa(lp191
F1.16357572435
aa(lp192
F5.53479463635
aa(lp193
F4.92461999298
aa(lp194
F4.63798056899
aa(lp195
F4.76426985607
aa(lp196
F5.19776706799
aa(lp197
F5.34676364602
aa(lp198
F3.36018904457
aa(lp199
F3.99509265651
aa(lp200
F4.87099173565
aa(lp201
F4.52500352234
aa(lp202
F1.32063597289
aa(lp203
F4.44571869988
aa(lp204
F4.76234481869
aa(lp205
F5.00965541154
aa(lp206
F4.99359206967
aa(lp207
F5.16411285184
aa(lp208
F5.16518531848
aa(lp209
F5.28401383912
aa(lp210
F3.90128673056
aa(lp211
F5.08816397087
aa(lp212
F4.02648140763
aa(lp213
F1.12460867835
aa(lp214
F4.548816562
aa(lp215
F5.67246144681
aa(lp216
F4.4462902475
aa(lp217
F4.1434499794
aa(lp218
F4.52605369453
aa(lp219
F4.84801557232
aa(lp220
F4.37141558397
aa(lp221
F4.85637031621
aa(lp222
F4.70509971216
aa(lp223
F4.32385056979
aa(lp224
F1.72715954285
aa(lp225
F0.444916261293
aa(lp226
F5.36118535458
aa(lp227
F4.30061240578
aa(lp228
F5.24160653347
aa(lp229
F5.54913444577
aa(lp230
F4.55850192472
aa(lp231
F5.69057072612
aa(lp232
F5.44764177152
aa(lp233
F5.06055833043
aa(lp234
F4.54262737225
aa(lp235
F5.46445000424
aa(lp236
F1.46905843917
aa(lp237
F5.12850063333
aa(lp238
F6.36943485053
aa(lp239
F8.44236949092
aa(lp240
F4.12989091441
aa(lp241
F6.30525485502
aa(lp242
F5.49366080859
aa(lp243
F5.25609104635
aa(lp244
F6.90158450048
aa(lp245
F6.43604220055
aa(lp246
F5.38911502135
aa(lp247
F2.13917656581
aa(lp248
F5.57495884144
aa(lp249
F4.55697671536
aa(lp250
F4.52034234503
aa(lp251
F5.33101616419
aa(lp252
F6.03548751811
aa(lp253
F4.70509634485
aa(lp254
F4.38216997602
aa(lp255
F5.12277815918
aa(lp256
F5.91843079018
aa(lp257
F5.38153944813
aa(lp258
F1.76098810342
aa(lp259
F4.18564834966
aa(lp260
F4.35289993173
aa(lp261
F5.90420532428
aa(lp262
F5.61878701883
aa(lp263
F5.36137319508
aa(lp264
F4.95070173947
aa(lp265
F5.60659667077
aa(lp266
F5.23466628669
aa(lp267
F5.61529430768
aa(lp268
F3.42090191939
aa(lp269
F0.824805519456
aa(lp270
F5.42972126658
aa(lp271
F3.82976953919
aa(lp272
F5.57758339281
aa(lp273
F6.42861746245
aa(lp274
F6.64468937923
aa(lp275
F5.17118443317
aa(lp276
F6.76601581832
aa(lp277
F5.30969710643
aa(lp278
F5.3359299266
aa(lp279
F4.73314974346
aa(lp280
F2.08860267539
aa(lp281
F5.58412799617
aa(lp282
F5.44091110428
aa(lp283
F4.80979772699
aa(lp284
F5.73259131789
aa(lp285
F6.27941858449
aa(lp286
F5.28723075895
aa(lp287
F5.73201585664
aa(lp288
F5.23623809262
aa(lp289
F4.22952218845
aa(lp290
F4.9291155826
aa(lp291
F1.3842103302
aa(lp292
F5.45146715498
aa(lp293
F4.22465094183
aa(lp294
F5.16264506605
aa(lp295
F5.18038309047
aa(lp296
F4.70271244757
aa(lp297
F5.20614058249
aa(lp298
F4.11898106984
aa(lp299
F5.70715599501
aa(lp300
F5.03811589628
aa(lp301
F5.36585489683
aa(lp302
F2.15439386618
aa(lp303
F5.57375011768
aa(lp304
F4.34639062537
aa(lp305
F4.77319065241
aa(lp306
F5.92315637463
aa(lp307
F5.81613349248
aa(lp308
F6.32609487256
aa(lp309
F6.41110634085
aa(lp310
F5.71778378374
aa(lp311
F3.68125108685
aa(lp312
F5.00619122003
aa(lp313
F0.803566099478
aa(lp314
F4.23732105693
aa(lp315
F5.83565615038
aa(lp316
F5.79393561586
aa(lp317
F4.8527968517
aa(lp318
F6.28606623353
aa(lp319
F7.42525148136
aa(lp320
F4.36320479326
aa(lp321
F4.79784964268
aa(lp322
F4.90259730581
aa(lp323
F5.18886015137
aa(lp324
F0.671986392548
aa(lp325
F6.38112013373
aa(lp326
F5.32819937075
aa(lp327
F5.71588797811
aa(lp328
F5.34391343603
aa(lp329
F5.28525340887
aa(lp330
F6.81919144933
aa(lp331
F4.65942290444
aa(lp332
F5.88200083108
aa(lp333
F4.94377717474
aa(lp334
F5.40397294025
aa(lp335
F1.21815702587
aa(lp336
F1.93432801858
aa(lp337
F5.36430365358
aa(lp338
F6.15942891526
aa(lp339
F5.7364597879
aa(lp340
F5.22504309639
aa(lp341
F6.15097679511
aa(lp342
F8.74928441085
aa(lp343
F7.01531905676
aa(lp344
F6.08986578241
aa(lp345
F5.93280994572
aa(lp346
F5.75982761604
aa(lp347
F2.34401711901
aa(lp348
F5.00409913652
aa(lp349
F5.71604123631
aa(lp350
F7.41323984022
aa(lp351
F5.73250632986
aa(lp352
F5.8930501752
aa(lp353
F6.26725473763
aa(lp354
F5.14446609936
aa(lp355
F5.04675219829
aa(lp356
F6.45308767482
aa(lp357
F5.83729321915
aa(lp358
F1.19441467275
aa(lp359
F5.95555557853
aa(lp360
F5.92893848296
aa(lp361
F5.11929091994
aa(lp362
F5.76682908748
aa(lp363
F5.09021531283
aa(lp364
F5.64159227298
aa(lp365
F5.57372545858
aa(lp366
F6.20852095552
aa(lp367
F5.46617197742
aa(lp368
F7.11938800081
aa(lp369
F1.57701070747
aa(lp370
F4.16181185351
aa(lp371
F4.95004489455
aa(lp372
F5.54992457915
aa(lp373
F5.47720749802
aa(lp374
F5.10689448379
aa(lp375
F4.11860249487
aa(lp376
F6.45056670266
aa(lp377
F4.76884419522
aa(lp378
F5.74745430818
aa(lp379
F5.591805124
aa(lp380
F2.14150537746
aa(lp381
F5.45290131593
aa(lp382
F4.6568920702
aa(lp383
F5.37861178105
aa(lp384
F5.09411626534
aa(lp385
F7.45537782146
aa(lp386
F4.36893459802
aa(lp387
F7.37150245254
aa(lp388
F5.93292306822
aa(lp389
F6.38167693938
aa(lp390
F5.51529583764
aa(lp391
F1.66479984012
aa(lp392
F5.491236751
aa(lp393
F6.42916378456
aa(lp394
F6.25133483891
aa(lp395
F4.91781085595
aa(lp396
F7.25247666362
aa(lp397
F7.11999584211
aa(lp398
F5.95602945665
aa(lp399
F7.48453573442
aa(lp400
F5.81375340306
aa(lp401
F6.42328186929
aa(lp402
F1.09502517524
aa(lp403
F5.29314297127
aa(lp404
F7.29582388291
aa(lp405
F4.74008621243
aa(lp406
F5.29252422011
aa(lp407
F5.78277507677
aa(lp408
F6.20316765096
aa(lp409
F5.60001168875
aa(lp410
F7.55601185022
aa(lp411
F5.45135982916
aa(lp412
F6.00601618168
aa(lp413
F1.35590838704
aa(lp414
F5.43409340281
aa(lp415
F4.85167091384
aa(lp416
F4.63336863815
aa(lp417
F6.11121926232
aa(lp418
F5.78410698646
aa(lp419
F5.46358287881
aa(lp420
F7.42611171843
aa(lp421
F5.47534317071
aa(lp422
F3.79614079044
aa(lp423
F4.64910638536
aa(lp424
F1.51999656794
aa(lp425
F6.11582843414
aa(lp426
F5.61826977957
aa(lp427
F6.09002985504
aa(lp428
F7.40150975816
aa(lp429
F7.10017242627
aa(lp430
F6.00153711658
aa(lp431
F5.45691306328
aa(lp432
F6.03129712006
aa(lp433
F6.75855560415
aa(lp434
F6.2574624866
aa(lp435
F1.48294169983
aa(lp436
F4.63718582545
aa(lp437
F5.7823622388
aa(lp438
F5.7167824295
aa(lp439
F5.13120162821
aa(lp440
F5.98794193952
aa(lp441
F3.76724451555
aa(lp442
F6.54246349347
aa(lp443
F5.5917693759
aa(lp444
F5.92481530413
aa(lp445
F5.12694112903
aa(lp446
F1.75520623361
aa(lp447
F0.757961789197
aa(lp448
F1.62424494022
aa(lp449
F2.16290963834
aa(lp450
F2.35066231532
aa(lp451
F0.655151313352
aa(lp452
F0.69843083542
aa(lp453
F1.83379047797
aa(lp454
F1.3143365238
aa(lp455
F2.13994335878
aa(lp456
F1.57024915703
aa(lp457
F0.864339846598
aa(lp458
F0.669207081065
aa(lp459
F1.90494926324
aa(lp460
F1.02888642614
aa(lp461
F1.37881350893
aa(lp462
F1.38568112713
aa(lp463
F1.38019670964
aa(lp464
F1.53461531409
aa(lp465
F1.91233059361
aa(lp466
F1.03758322639
aa(lp467
F1.56553501423
aa(lp468
F0.827725043755
aa(lp469
F1.26762064097
aa(lp470
F1.85103536176
aa(lp471
F1.6341619586
aa(lp472
F1.25141834089
aa(lp473
F0.880268913307
aa(lp474
F1.67442519693
aa(lp475
F0.831050869119
aa(lp476
F1.57844120884
aa(lp477
F1.41732848072
aa(lp478
F1.29413668193
aa(lp479
F1.54649013124
aa(lp480
F1.27584148307
aa(lp481
F1.75387487547
aa(lp482
F1.68473245427
aa(lp483
F1.31188205039
aa(lp484
F0.464405867023
aa(lp485
F1.2207194246
aa(lp486
F1.11936753648
aa(lp487
F1.2589836062
aa(lp488
F1.41141823323
aa(lp489
F2.04515003999
aa(lp490
F1.97109747437
aa(lp491
F1.08455178859
aa(lp492
F2.36679946973
aa(lp493
F1.4254813569
aa(lp494
F1.23835667005
aa(lp495
F1.00888569477
aa(lp496
F1.05787508607
aa(lp497
F0.961170274541
aa(lp498
F1.5697999881
aa(lp499
F1.18124802371
aa(lp500
F1.74298020543
aa.