(lp0
(lp1
F1.73965011608
aa(lp2
F1.21035460587
aa(lp3
F2.84411603391
aa(lp4
F3.44605787736
aa(lp5
F2.02838199682
aa(lp6
F1.14303401507
aa(lp7
F2.02523425624
aa(lp8
F3.41618366869
aa(lp9
F4.34521681527
aa(lp10
F3.21629236664
aa(lp11
F2.97278237378
aa(lp12
F3.40636897447
aa(lp13
F2.28387686528
aa(lp14
F1.5974543571
aa(lp15
F2.24862608108
aa(lp16
F3.79661060093
aa(lp17
F1.66334184614
aa(lp18
F1.56466702206
aa(lp19
F3.21353564974
aa(lp20
F1.97831141539
aa(lp21
F2.70383629094
aa(lp22
F4.33381847518
aa(lp23
F1.33585169886
aa(lp24
F2.31603856245
aa(lp25
F1.64029100057
aa(lp26
F3.45722160325
aa(lp27
F1.27243547944
aa(lp28
F2.36775144331
aa(lp29
F0.80050900753
aa(lp30
F3.30302141749
aa(lp31
F2.53710379643
aa(lp32
F0.920230680856
aa(lp33
F3.11607299904
aa(lp34
F1.23454724057
aa(lp35
F3.31021625309
aa(lp36
F0.511251199954
aa(lp37
F4.14505179665
aa(lp38
F3.53065584919
aa(lp39
F1.95874068051
aa(lp40
F1.78485245277
aa(lp41
F1.79887065148
aa(lp42
F2.30769020701
aa(lp43
F2.42923991601
aa(lp44
F1.04838868994
aa(lp45
F1.54427513747
aa(lp46
F1.81210680284
aa(lp47
F-0.35004530664
aa(lp48
F1.34620014038
aa(lp49
F1.63999773281
aa(lp50
F2.77083819744
aa(lp51
F2.37254148331
aa(lp52
F0.863440357591
aa(lp53
F2.66733423099
aa(lp54
F2.22925085805
aa(lp55
F2.15448713162
aa(lp56
F0.741225908345
aa(lp57
F3.32055882926
aa(lp58
F2.09237302103
aa(lp59
F2.96466863255
aa(lp60
F2.747161714
aa(lp61
F2.36499472641
aa(lp62
F2.99976300727
aa(lp63
F1.92348989632
aa(lp64
F1.44106443877
aa(lp65
F3.81360057955
aa(lp66
F3.78182990606
aa(lp67
F2.75725012478
aa(lp68
F2.43780333447
aa(lp69
F2.6814697368
aa(lp70
F2.79924606735
aa(lp71
F3.76476172269
aa(lp72
F0.783169062715
aa(lp73
F1.65352715193
aa(lp74
F1.49467378444
aa(lp75
F1.5907483011
aa(lp76
F1.48173090084
aa(lp77
F2.04284987275
aa(lp78
F0.855195623429
aa(lp79
F4.85303926043
aa(lp80
F0.694787936844
aa(lp81
F2.16226850272
aa(lp82
F2.12383087559
aa(lp83
F0.664450365113
aa(lp84
F5.18591771394
aa(lp85
F3.60004300011
aa(lp86
F2.37492672772
aa(lp87
F4.81204042824
aa(lp88
F1.70723425352
aa(lp89
F2.09280314707
aa(lp90
F2.36247262371
aa(lp91
F1.48452672011
aa(lp92
F3.15574235075
aa(lp93
F2.06068055227
aa(lp94
F2.71222374874
aa(lp95
F3.31737198632
aa(lp96
F2.02058107452
aa(lp97
F-0.475804541899
aa(lp98
F2.24287803308
aa(lp99
F2.23857677267
aa(lp100
F2.75388732119
aa(lp101
F2.30370176554
aa(lp102
F1.09203866265
aa(lp103
F1.81965355974
aa(lp104
F0.88873567905
aa(lp105
F2.13565934172
aa(lp106
F3.10747047822
aa(lp107
F1.00405247069
aa(lp108
F3.86320193257
aa(lp109
F0.788788072908
aa(lp110
F1.63004618031
aa(lp111
F4.18657851081
aa(lp112
F2.96165775026
aa(lp113
F1.0678186563
aa(lp114
F2.11065337778
aa(lp115
F3.30931689864
aa(lp116
F6.46640293853
aa(lp117
F3.76431204547
aa(lp118
F6.07842924939
aa(lp119
F3.85332858481
aa(lp120
F5.12671672973
aa(lp121
F5.0776041563
aa(lp122
F5.71473813039
aa(lp123
F3.57282775241
aa(lp124
F5.57095872553
aa(lp125
F2.89690422988
aa(lp126
F4.44733264768
aa(lp127
F4.09316295514
aa(lp128
F3.9695017183
aa(lp129
F4.67086133081
aa(lp130
F4.79551967802
aa(lp131
F4.82854162727
aa(lp132
F4.01493866919
aa(lp133
F4.08264441831
aa(lp134
F5.66083551695
aa(lp135
F4.3672314481
aa(lp136
F0.775569517615
aa(lp137
F3.0974211698
aa(lp138
F3.73787884512
aa(lp139
F2.30037806431
aa(lp140
F4.4481537974
aa(lp141
F4.54972219667
aa(lp142
F5.34639382967
aa(lp143
F3.31121336345
aa(lp144
F3.18530374049
aa(lp145
F5.10738060906
aa(lp146
F3.25355692275
aa(lp147
F1.54001297942
aa(lp148
F4.53304503698
aa(lp149
F5.02297814907
aa(lp150
F4.02827257647
aa(lp151
F5.29442678342
aa(lp152
F4.38044804828
aa(lp153
F3.66855034776
aa(lp154
F2.02494098849
aa(lp155
F5.23149152312
aa(lp156
F6.36710247657
aa(lp157
F3.6372098003
aa(lp158
F1.67958887979
aa(lp159
F4.47622929718
aa(lp160
F4.04043341272
aa(lp161
F4.94039394916
aa(lp162
F3.94744798309
aa(lp163
F5.15043231554
aa(lp164
F4.8172410431
aa(lp165
F3.76880881772
aa(lp166
F3.95593319682
aa(lp167
F4.29193983971
aa(lp168
F3.45141490169
aa(lp169
F2.57722282536
aa(lp170
F5.1818901701
aa(lp171
F4.15083894702
aa(lp172
F3.30824158353
aa(lp173
F5.66470665133
aa(lp174
F5.68885236318
aa(lp175
F4.20327522168
aa(lp176
F4.2171565621
aa(lp177
F4.11705450161
aa(lp178
F3.94693965232
aa(lp179
F5.15211371734
aa(lp180
F1.16340634847
aa(lp181
F4.56055355243
aa(lp182
F4.59038865874
aa(lp183
F5.73655725139
aa(lp184
F3.93661662733
aa(lp185
F4.84168002271
aa(lp186
F4.29049305212
aa(lp187
F3.21347699619
aa(lp188
F5.59399001992
aa(lp189
F3.67500223837
aa(lp190
F5.8754684115
aa(lp191
F2.9293591948
aa(lp192
F5.72912780158
aa(lp193
F4.67680489065
aa(lp194
F4.51718902701
aa(lp195
F5.28600022325
aa(lp196
F3.60201766966
aa(lp197
F6.44953026701
aa(lp198
F5.27458233197
aa(lp199
F4.86985327841
aa(lp200
F2.63654111668
aa(lp201
F3.57241717755
aa(lp202
F0.54472478155
aa(lp203
F6.6426568595
aa(lp204
F3.40683820288
aa(lp205
F7.31811115362
aa(lp206
F5.73094606167
aa(lp207
F5.59834993388
aa(lp208
F4.06150958874
aa(lp209
F6.73765606105
aa(lp210
F4.21854469614
aa(lp211
F4.57609674346
aa(lp212
F5.59224996457
aa(lp213
F1.23543290919
aa(lp214
F5.10871008955
aa(lp215
F4.54706323568
aa(lp216
F5.67053290406
aa(lp217
F5.1417320388
aa(lp218
F4.96506754298
aa(lp219
F3.98279652321
aa(lp220
F6.03436088135
aa(lp221
F4.67340298469
aa(lp222
F6.30668931897
aa(lp223
F5.0048346506
aa(lp224
F2.19163438063
aa(lp225
F0.943336269741
aa(lp226
F6.98671859008
aa(lp227
F5.24480587921
aa(lp228
F6.03848618111
aa(lp229
F6.0068523659
aa(lp230
F5.39188943411
aa(lp231
F6.13387640633
aa(lp232
F4.65791844721
aa(lp233
F5.88776610604
aa(lp234
F4.72167485722
aa(lp235
F6.27970868548
aa(lp236
F2.00593723794
aa(lp237
F7.14373414629
aa(lp238
F4.96772650396
aa(lp239
F4.66755718077
aa(lp240
F5.11770363405
aa(lp241
F4.85593283562
aa(lp242
F6.56286847886
aa(lp243
F5.15311082771
aa(lp244
F4.96583003914
aa(lp245
F3.37999442767
aa(lp246
F4.69432275124
aa(lp247
F1.93408663788
aa(lp248
F5.55439887295
aa(lp249
F4.29532219449
aa(lp250
F5.51572663161
aa(lp251
F6.14181418691
aa(lp252
F5.58701024734
aa(lp253
F5.23686809864
aa(lp254
F5.63625967906
aa(lp255
F4.73000366147
aa(lp256
F4.59736843132
aa(lp257
F5.41153837372
aa(lp258
F1.11751776524
aa(lp259
F5.92024062215
aa(lp260
F5.76887535803
aa(lp261
F6.49215184745
aa(lp262
F6.73916150219
aa(lp263
F4.51644608203
aa(lp264
F6.4819070272
aa(lp265
F5.9170733304
aa(lp266
F5.4568775687
aa(lp267
F5.6879921111
aa(lp268
F5.40534064849
aa(lp269
F2.54658612052
aa(lp270
F4.51578134178
aa(lp271
F6.37855947022
aa(lp272
F4.32805087599
aa(lp273
F6.35048397044
aa(lp274
F5.16947516846
aa(lp275
F4.84349828279
aa(lp276
F5.54026336714
aa(lp277
F5.38858528407
aa(lp278
F6.89169983734
aa(lp279
F5.40536019968
aa(lp280
F2.34077080981
aa(lp281
F7.26240983129
aa(lp282
F5.75335171818
aa(lp283
F5.55324535311
aa(lp284
F4.67752828445
aa(lp285
F5.38889810301
aa(lp286
F6.21456414142
aa(lp287
F3.82478385662
aa(lp288
F5.1954391404
aa(lp289
F5.07306828168
aa(lp290
F5.17592705907
aa(lp291
F0.189202147094
aa(lp292
F6.67043909152
aa(lp293
F4.58448420127
aa(lp294
F5.26912755172
aa(lp295
F6.25239568186
aa(lp296
F5.29462229526
aa(lp297
F5.19235005337
aa(lp298
F5.05447510599
aa(lp299
F5.12650166671
aa(lp300
F5.34475153024
aa(lp301
F6.08818529005
aa(lp302
F0.594091520367
aa(lp303
F3.62008296339
aa(lp304
F3.68980248443
aa(lp305
F5.63113726893
aa(lp306
F4.4083475874
aa(lp307
F5.75073185956
aa(lp308
F6.52763724585
aa(lp309
F3.66344748881
aa(lp310
F5.09576720595
aa(lp311
F5.20433492898
aa(lp312
F5.03773929275
aa(lp313
F1.38689006388
aa(lp314
F5.24197095758
aa(lp315
F5.92948833204
aa(lp316
F6.22793715107
aa(lp317
F2.40296312513
aa(lp318
F6.08419684858
aa(lp319
F5.01758202237
aa(lp320
F6.71116420715
aa(lp321
F4.36013436842
aa(lp322
F4.08350467039
aa(lp323
F5.16323834086
aa(lp324
F-0.661437204783
aa(lp325
F5.00706348554
aa(lp326
F6.34616315884
aa(lp327
F7.03465809249
aa(lp328
F6.46808434033
aa(lp329
F4.97777581238
aa(lp330
F4.42870036962
aa(lp331
F4.80073984406
aa(lp332
F5.22973191659
aa(lp333
F4.81432791673
aa(lp334
F6.40745611971
aa(lp335
F1.40421632287
aa(lp336
F0.292756946626
aa(lp337
F5.76377249908
aa(lp338
F5.95011483083
aa(lp339
F6.0606767746
aa(lp340
F5.34504479799
aa(lp341
F5.83798879237
aa(lp342
F5.83460643759
aa(lp343
F4.58878546168
aa(lp344
F5.63467603318
aa(lp345
F4.55877439471
aa(lp346
F6.17033936392
aa(lp347
F1.53668927819
aa(lp348
F4.60043796716
aa(lp349
F5.60794956507
aa(lp350
F5.53146533448
aa(lp351
F5.10853412889
aa(lp352
F5.373569975
aa(lp353
F6.89465206608
aa(lp354
F6.29394194721
aa(lp355
F5.39619069453
aa(lp356
F6.07578983959
aa(lp357
F5.19610388064
aa(lp358
F1.17083579828
aa(lp359
F7.46890943343
aa(lp360
F5.61164473879
aa(lp361
F6.26015750179
aa(lp362
F5.5128526076
aa(lp363
F4.65015662728
aa(lp364
F6.06169343615
aa(lp365
F5.66408101345
aa(lp366
F5.47703483908
aa(lp367
F4.28478410648
aa(lp368
F0.895218851561
aa(lp369
F1.52922072603
aa(lp370
F5.33702881268
aa(lp371
F5.46745475908
aa(lp372
F5.47734765802
aa(lp373
F7.59886615141
aa(lp374
F5.12118374474
aa(lp375
F5.41494027968
aa(lp376
F5.19236960456
aa(lp377
F4.9848142385
aa(lp378
F4.24706987314
aa(lp379
F4.36291063651
aa(lp380
F-0.150171209635
aa(lp381
F4.81434746791
aa(lp382
F5.1245856507
aa(lp383
F4.98039567099
aa(lp384
F5.4730659488
aa(lp385
F3.66434684326
aa(lp386
F2.80732070621
aa(lp387
F5.19225229746
aa(lp388
F7.2525755859
aa(lp389
F5.06515005229
aa(lp390
F6.78995547742
aa(lp391
F-0.0169162069586
aa(lp392
F5.6021624147
aa(lp393
F4.94676763504
aa(lp394
F5.46293843564
aa(lp395
F3.57341428792
aa(lp396
F6.24211175924
aa(lp397
F5.75628439573
aa(lp398
F6.13082642168
aa(lp399
F6.02695098273
aa(lp400
F5.61430369977
aa(lp401
F5.43071808492
aa(lp402
F1.16753164823
aa(lp403
F4.11318336723
aa(lp404
F5.31384110882
aa(lp405
F5.37333536079
aa(lp406
F6.84114047632
aa(lp407
F5.22306496295
aa(lp408
F6.3585586093
aa(lp409
F6.0123657997
aa(lp410
F6.51539820486
aa(lp411
F4.94481251667
aa(lp412
F5.70431734948
aa(lp413
F0.448615072767
aa(lp414
F4.42359751068
aa(lp415
F5.2475821473
aa(lp416
F6.71568053058
aa(lp417
F4.77645727392
aa(lp418
F4.78179474707
aa(lp419
F4.95106889546
aa(lp420
F4.90348131435
aa(lp421
F5.53961817808
aa(lp422
F3.8554987662
aa(lp423
F5.35120342086
aa(lp424
F1.76819484427
aa(lp425
F6.47950223161
aa(lp426
F6.08521351013
aa(lp427
F5.19457888831
aa(lp428
F0.433679923546
aa(lp429
F6.53788206611
aa(lp430
F6.2789657405
aa(lp431
F3.80613202738
aa(lp432
F6.21976475629
aa(lp433
F3.32988474388
aa(lp434
F5.12175072907
aa(lp435
F0.859970022487
aa(lp436
F5.45189201686
aa(lp437
F6.66873813854
aa(lp438
F7.11174840978
aa(lp439
F3.92042824723
aa(lp440
F6.42925568952
aa(lp441
F5.8513813532
aa(lp442
F7.47692541874
aa(lp443
F6.02055774567
aa(lp444
F5.78754673845
aa(lp445
F4.90144799125
aa(lp446
F1.15125724293
aa(lp447
F0.993058840101
aa(lp448
F0.804526775778
aa(lp449
F0.088640633784
aa(lp450
F0.563300361174
aa(lp451
F1.19938639182
aa(lp452
F1.47128665851
aa(lp453
F1.26695723777
aa(lp454
F2.97037757818
aa(lp455
F1.77276982125
aa(lp456
F1.73857480098
aa(lp457
F-0.0880512336964
aa(lp458
F1.28531188902
aa(lp459
F0.470647301667
aa(lp460
F-0.163010471964
aa(lp461
F2.09778869891
aa(lp462
F0.862904655158
aa(lp463
F0.0328611067163
aa(lp464
F0.616698554068
aa(lp465
F1.12258152181
aa(lp466
F1.89216890005
aa(lp467
F2.79646979926
aa(lp468
F2.28428744013
aa(lp469
F1.37458454887
aa(lp470
F-0.237187662884
aa(lp471
F0.222091148297
aa(lp472
F1.65992038899
aa(lp473
F1.93324593698
aa(lp474
F1.61045589426
aa(lp475
F1.23641437861
aa(lp476
F1.16882593659
aa(lp477
F1.19537253381
aa(lp478
F0.491864246207
aa(lp479
F0.712589289594
aa(lp480
F2.11927544979
aa(lp481
F1.01890941518
aa(lp482
F-0.219824256649
aa(lp483
F0.739450660866
aa(lp484
F0.754059305319
aa(lp485
F1.27568684129
aa(lp486
F1.497606462
aa(lp487
F0.84345904786
aa(lp488
F1.27249413299
aa(lp489
F0.950501778563
aa(lp490
F0.794233077565
aa(lp491
F0.414132650092
aa(lp492
F2.16557265277
aa(lp493
F1.25069065294
aa(lp494
F0.742148724215
aa(lp495
F-0.218614038378
aa(lp496
F0.763784064087
aa(lp497
F1.64633231633
aa(lp498
F-0.677404069967
aa(lp499
F2.38888627288
aa(lp500
F1.81638851206
aa.