(lp0
(lp1
F2.1208363001
aa(lp2
F1.29966563225
aa(lp3
F1.71022401857
aa(lp4
F2.30545418822
aa(lp5
F3.28868471827
aa(lp6
F3.06451958835
aa(lp7
F3.19489544435
aa(lp8
F3.41677611591
aa(lp9
F3.25862105842
aa(lp10
F3.51452600979
aa(lp11
F3.28253726934
aa(lp12
F2.97715308097
aa(lp13
F3.50781394281
aa(lp14
F2.20918327388
aa(lp15
F3.30841075591
aa(lp16
F3.29066722159
aa(lp17
F2.27626815832
aa(lp18
F2.55184339882
aa(lp19
F3.14640377278
aa(lp20
F3.75272166309
aa(lp21
F3.3965704054
aa(lp22
F2.99119305293
aa(lp23
F3.08425262189
aa(lp24
F2.82772342787
aa(lp25
F1.51550109768
aa(lp26
F2.90870364927
aa(lp27
F2.51367412919
aa(lp28
F3.19660399636
aa(lp29
F2.64477302724
aa(lp30
F3.92351401969
aa(lp31
F3.45691338887
aa(lp32
F2.52685810362
aa(lp33
F3.31423346352
aa(lp34
F3.15401730059
aa(lp35
F3.64167287228
aa(lp36
F2.07375383409
aa(lp37
F3.69193137248
aa(lp38
F3.41386019157
aa(lp39
F2.85802121827
aa(lp40
F2.76723768658
aa(lp41
F3.13603169421
aa(lp42
F3.36407185325
aa(lp43
F2.78051800887
aa(lp44
F3.36809955188
aa(lp45
F3.16912540525
aa(lp46
F2.73078489718
aa(lp47
F1.90094356665
aa(lp48
F3.08859637859
aa(lp49
F2.62307519252
aa(lp50
F3.91593828251
aa(lp51
F2.87879281272
aa(lp52
F3.42863073272
aa(lp53
F3.30734241112
aa(lp54
F3.49283128834
aa(lp55
F2.55971212153
aa(lp56
F3.0538561586
aa(lp57
F3.37342195701
aa(lp58
F2.17463172891
aa(lp59
F3.52627905521
aa(lp60
F3.07285570916
aa(lp61
F3.51204683641
aa(lp62
F3.3862877385
aa(lp63
F3.72072666895
aa(lp64
F2.76982657946
aa(lp65
F3.06659955511
aa(lp66
F3.45360754124
aa(lp67
F3.5026423285
aa(lp68
F3.3732968844
aa(lp69
F1.52764449624
aa(lp70
F2.25201668999
aa(lp71
F3.90742781656
aa(lp72
F3.46124008121
aa(lp73
F2.09633234134
aa(lp74
F2.58244635395
aa(lp75
F3.58910936935
aa(lp76
F3.10129041485
aa(lp77
F3.06788381326
aa(lp78
F2.33987241637
aa(lp79
F3.95690798768
aa(lp80
F1.42449367456
aa(lp81
F3.32082985534
aa(lp82
F1.71290399886
aa(lp83
F3.65993041061
aa(lp84
F4.32362625471
aa(lp85
F2.82890220467
aa(lp86
F2.6392099699
aa(lp87
F4.00540604997
aa(lp88
F3.30473836401
aa(lp89
F2.9028972057
aa(lp90
F2.30477445314
aa(lp91
F2.01445980073
aa(lp92
F3.26967831498
aa(lp93
F2.76370077759
aa(lp94
F2.94959714028
aa(lp95
F3.70639605462
aa(lp96
F3.76607812372
aa(lp97
F2.44863656945
aa(lp98
F2.8900787736
aa(lp99
F3.30546815722
aa(lp100
F3.5219991348
aa(lp101
F3.92765231245
aa(lp102
F1.99676868891
aa(lp103
F2.84759432608
aa(lp104
F3.01998745068
aa(lp105
F3.04633209441
aa(lp106
F2.91789442486
aa(lp107
F2.23758294237
aa(lp108
F2.90743714513
aa(lp109
F2.23392038364
aa(lp110
F3.08466861445
aa(lp111
F3.73057085083
aa(lp112
F3.98934733457
aa(lp113
F1.8616257179
aa(lp114
F1.76402456649
aa(lp115
F3.17634692827
aa(lp116
F4.02134801601
aa(lp117
F3.59153896354
aa(lp118
F3.93200065868
aa(lp119
F3.10796512948
aa(lp120
F3.72969564666
aa(lp121
F4.46085819447
aa(lp122
F4.10753221271
aa(lp123
F4.05551600156
aa(lp124
F4.88409218401
aa(lp125
F1.95630873134
aa(lp126
F4.20255452653
aa(lp127
F4.05573958373
aa(lp128
F3.95792327213
aa(lp129
F4.2398249203
aa(lp130
F4.47594165697
aa(lp131
F3.99947324816
aa(lp132
F3.39160733399
aa(lp133
F4.26210267284
aa(lp134
F4.1443218093
aa(lp135
F4.13052675208
aa(lp136
F1.58168757387
aa(lp137
F5.02472586758
aa(lp138
F4.03869291008
aa(lp139
F3.90818465875
aa(lp140
F3.90822225028
aa(lp141
F3.73312715119
aa(lp142
F5.5366649454
aa(lp143
F5.52492779029
aa(lp144
F4.22503330141
aa(lp145
F3.26006131261
aa(lp146
F4.48464038892
aa(lp147
F1.9397863995
aa(lp148
F4.29562468804
aa(lp149
F4.03606020147
aa(lp150
F4.09833853956
aa(lp151
F4.422305505
aa(lp152
F4.52451143218
aa(lp153
F4.45719912788
aa(lp154
F3.99813822808
aa(lp155
F2.92040359213
aa(lp156
F3.58444861243
aa(lp157
F4.39509889058
aa(lp158
F2.24578349959
aa(lp159
F5.20828317533
aa(lp160
F4.84110683449
aa(lp161
F3.7703436165
aa(lp162
F4.88464755342
aa(lp163
F4.09333617554
aa(lp164
F4.55975713687
aa(lp165
F4.11038017058
aa(lp166
F4.58323914398
aa(lp167
F3.54394129791
aa(lp168
F3.80604471526
aa(lp169
F2.32616570532
aa(lp170
F4.33916426343
aa(lp171
F4.77327790987
aa(lp172
F3.4344757801
aa(lp173
F3.62002540789
aa(lp174
F4.30558399267
aa(lp175
F3.79086859803
aa(lp176
F4.39857543504
aa(lp177
F3.7651731402
aa(lp178
F4.02428317877
aa(lp179
F4.81307629779
aa(lp180
F1.8554224105
aa(lp181
F4.70409089905
aa(lp182
F3.24748455539
aa(lp183
F4.80503638244
aa(lp184
F3.85818432721
aa(lp185
F3.91530727874
aa(lp186
F3.67931308715
aa(lp187
F3.88486552829
aa(lp188
F5.3546200515
aa(lp189
F4.28258481261
aa(lp190
F4.57265888682
aa(lp191
F1.62361975339
aa(lp192
F4.92664869318
aa(lp193
F4.69602030014
aa(lp194
F4.13912420532
aa(lp195
F3.94004505088
aa(lp196
F4.64021340779
aa(lp197
F4.58796973673
aa(lp198
F3.24347408933
aa(lp199
F3.71662883262
aa(lp200
F4.45957209553
aa(lp201
F4.22159544968
aa(lp202
F1.71531478113
aa(lp203
F4.1160280682
aa(lp204
F4.14925176413
aa(lp205
F4.49835092744
aa(lp206
F4.38934609206
aa(lp207
F4.99553192421
aa(lp208
F4.59621819291
aa(lp209
F4.67380956454
aa(lp210
F3.60072847272
aa(lp211
F4.40126866039
aa(lp212
F3.84877348256
aa(lp213
F1.52771654484
aa(lp214
F4.26999276296
aa(lp215
F5.11442196789
aa(lp216
F4.08279938597
aa(lp217
F3.88637392412
aa(lp218
F4.19281446967
aa(lp219
F4.17619829598
aa(lp220
F3.96576845062
aa(lp221
F4.3679278269
aa(lp222
F4.32363860056
aa(lp223
F3.99805180431
aa(lp224
F2.68306150664
aa(lp225
F0.996755354958
aa(lp226
F4.97828146075
aa(lp227
F4.06225172155
aa(lp228
F4.612438134
aa(lp229
F5.24718169756
aa(lp230
F4.27345947893
aa(lp231
F4.97384802908
aa(lp232
F4.9729329299
aa(lp233
F5.03917862363
aa(lp234
F4.28277173629
aa(lp235
F5.04362377203
aa(lp236
F1.86899744641
aa(lp237
F4.54960568605
aa(lp238
F5.48297366558
aa(lp239
F7.69098577153
aa(lp240
F3.76895016387
aa(lp241
F5.61961116496
aa(lp242
F4.91043243699
aa(lp243
F4.81482941903
aa(lp244
F6.32147349142
aa(lp245
F5.60132362387
aa(lp246
F5.27685422519
aa(lp247
F2.75200388753
aa(lp248
F4.97374012329
aa(lp249
F4.48238225564
aa(lp250
F4.20892984176
aa(lp251
F5.20468395276
aa(lp252
F5.35116727466
aa(lp253
F4.50944432317
aa(lp254
F4.1259145796
aa(lp255
F4.75263717598
aa(lp256
F5.55375166245
aa(lp257
F4.99791423731
aa(lp258
F2.00494070326
aa(lp259
F4.01035502392
aa(lp260
F4.0541769365
aa(lp261
F5.86779703158
aa(lp262
F5.10979835371
aa(lp263
F5.49766027767
aa(lp264
F4.66608393612
aa(lp265
F5.07167394197
aa(lp266
F5.01339294307
aa(lp267
F5.08772588666
aa(lp268
F3.52414605218
aa(lp269
F1.23687412299
aa(lp270
F5.00135218674
aa(lp271
F3.61065462903
aa(lp272
F5.06172884795
aa(lp273
F5.66806818884
aa(lp274
F5.82971905481
aa(lp275
F4.94881363922
aa(lp276
F5.71018904861
aa(lp277
F4.80391878065
aa(lp278
F4.81543871462
aa(lp279
F4.52976888725
aa(lp280
F2.37567327251
aa(lp281
F5.03691160167
aa(lp282
F4.88180073647
aa(lp283
F4.60575878864
aa(lp284
F5.12939716564
aa(lp285
F5.40298180095
aa(lp286
F4.71373681104
aa(lp287
F5.52658671391
aa(lp288
F4.81518675597
aa(lp289
F4.04614514108
aa(lp290
F4.60389381042
aa(lp291
F1.88391001149
aa(lp292
F5.28200259106
aa(lp293
F3.87521434048
aa(lp294
F4.39457934131
aa(lp295
F4.68169384706
aa(lp296
F4.35339447655
aa(lp297
F4.96124325222
aa(lp298
F3.77639520095
aa(lp299
F5.19950159856
aa(lp300
F4.83320204843
aa(lp301
F4.78940569774
aa(lp302
F2.263998488
aa(lp303
F4.99820411065
aa(lp304
F3.8767096158
aa(lp305
F4.39559677636
aa(lp306
F5.37400315361
aa(lp307
F5.33697844135
aa(lp308
F5.80420941939
aa(lp309
F5.53164223529
aa(lp310
F4.95837265004
aa(lp311
F3.52438221582
aa(lp312
F4.41904099584
aa(lp313
F1.30565175861
aa(lp314
F4.12711521575
aa(lp315
F5.11978266223
aa(lp316
F5.36685327458
aa(lp317
F4.38210527603
aa(lp318
F5.48474728656
aa(lp319
F6.4058456592
aa(lp320
F4.21962448271
aa(lp321
F4.45484237117
aa(lp322
F4.52731324319
aa(lp323
F4.91167713629
aa(lp324
F1.10988482343
aa(lp325
F5.64751569961
aa(lp326
F5.1271601788
aa(lp327
F5.45989395953
aa(lp328
F5.26480824581
aa(lp329
F5.15412933384
aa(lp330
F6.00988340188
aa(lp331
F4.03588407077
aa(lp332
F5.40663977504
aa(lp333
F4.46989945818
aa(lp334
F4.96343259636
aa(lp335
F1.55405123729
aa(lp336
F2.1748266954
aa(lp337
F5.0303997123
aa(lp338
F5.77160615173
aa(lp339
F5.3259436544
aa(lp340
F5.04615038681
aa(lp341
F5.62216375243
aa(lp342
F7.47231937222
aa(lp343
F6.27673031094
aa(lp344
F5.71776991585
aa(lp345
F5.62437288841
aa(lp346
F5.37285687559
aa(lp347
F2.46690614748
aa(lp348
F4.85481542765
aa(lp349
F5.44843472396
aa(lp350
F6.96243819431
aa(lp351
F5.54180968825
aa(lp352
F5.41508819058
aa(lp353
F5.87033111576
aa(lp354
F4.86101330876
aa(lp355
F4.78634496489
aa(lp356
F6.06809313171
aa(lp357
F5.60921329763
aa(lp358
F1.55425125362
aa(lp359
F5.76125954016
aa(lp360
F5.72792986249
aa(lp361
F4.89544581843
aa(lp362
F5.49463637392
aa(lp363
F4.97014301736
aa(lp364
F5.27606585362
aa(lp365
F5.21744514505
aa(lp366
F5.87342542426
aa(lp367
F5.00412233648
aa(lp368
F6.51793420885
aa(lp369
F1.87025766752
aa(lp370
F4.16261262543
aa(lp371
F4.76342258634
aa(lp372
F5.23474867504
aa(lp373
F4.97995278881
aa(lp374
F4.91780583349
aa(lp375
F4.22939566397
aa(lp376
F5.85995925684
aa(lp377
F4.61973751888
aa(lp378
F5.28640035082
aa(lp379
F5.33396923271
aa(lp380
F2.35750428411
aa(lp381
F5.56166917883
aa(lp382
F5.09183835324
aa(lp383
F5.21814235477
aa(lp384
F4.92570609655
aa(lp385
F6.44102483403
aa(lp386
F4.2689229417
aa(lp387
F6.97084358929
aa(lp388
F5.53685278264
aa(lp389
F5.8808820107
aa(lp390
F5.12184817439
aa(lp391
F1.88519173801
aa(lp392
F5.22595957632
aa(lp393
F6.16934965237
aa(lp394
F5.78640845362
aa(lp395
F4.68960924663
aa(lp396
F6.62164482548
aa(lp397
F6.45343515059
aa(lp398
F5.50787157327
aa(lp399
F6.58676848938
aa(lp400
F5.6365659688
aa(lp401
F5.71707036991
aa(lp402
F1.47158406613
aa(lp403
F5.01280629581
aa(lp404
F6.33650738625
aa(lp405
F4.59719215758
aa(lp406
F5.04796009173
aa(lp407
F5.47983541762
aa(lp408
F5.60109348944
aa(lp409
F5.46835314875
aa(lp410
F7.49369270692
aa(lp411
F5.12335162404
aa(lp412
F5.67825815023
aa(lp413
F1.79618431136
aa(lp414
F5.46528476767
aa(lp415
F4.58448046856
aa(lp416
F4.33175894025
aa(lp417
F5.63942308814
aa(lp418
F5.42869660924
aa(lp419
F5.25776532428
aa(lp420
F7.13053840439
aa(lp421
F5.08647715442
aa(lp422
F3.70340712089
aa(lp423
F4.68330739017
aa(lp424
F1.85714021392
aa(lp425
F5.59605198604
aa(lp426
F5.32040255659
aa(lp427
F5.60896622423
aa(lp428
F6.52799495572
aa(lp429
F6.44994830917
aa(lp430
F5.49742050333
aa(lp431
F5.17840874341
aa(lp432
F5.58224638377
aa(lp433
F6.16490841798
aa(lp434
F5.73187799552
aa(lp435
F1.69687799383
aa(lp436
F4.3790176818
aa(lp437
F5.50177585137
aa(lp438
F5.58663292132
aa(lp439
F5.33460346278
aa(lp440
F5.61603259646
aa(lp441
F3.87182704917
aa(lp442
F6.04551764718
aa(lp443
F5.2991972971
aa(lp444
F5.61388795682
aa(lp445
F4.95534950243
aa(lp446
F2.05743620654
aa(lp447
F1.20752870175
aa(lp448
F1.78066900918
aa(lp449
F2.49262662365
aa(lp450
F2.39733111252
aa(lp451
F1.22094521996
aa(lp452
F1.14142701959
aa(lp453
F2.09444491119
aa(lp454
F1.86114241305
aa(lp455
F2.29488634652
aa(lp456
F1.78384318837
aa(lp457
F1.33848732557
aa(lp458
F1.12183394638
aa(lp459
F2.1670705399
aa(lp460
F1.39638556991
aa(lp461
F1.59956409254
aa(lp462
F1.76974630781
aa(lp463
F1.62274215438
aa(lp464
F1.74221784846
aa(lp465
F2.10093414857
aa(lp466
F1.569492777
aa(lp467
F1.9420810756
aa(lp468
F1.2641377241
aa(lp469
F1.63332386565
aa(lp470
F2.11486209283
aa(lp471
F2.07717253993
aa(lp472
F1.86906390155
aa(lp473
F1.31926743733
aa(lp474
F1.98149070731
aa(lp475
F1.68620168757
aa(lp476
F1.8041840901
aa(lp477
F1.7930902433
aa(lp478
F1.75202720027
aa(lp479
F1.84594738826
aa(lp480
F1.73938321558
aa(lp481
F2.08216928006
aa(lp482
F1.89461312418
aa(lp483
F1.4698482543
aa(lp484
F1.00101888263
aa(lp485
F1.62012486778
aa(lp486
F1.63048492092
aa(lp487
F1.60364384807
aa(lp488
F1.93799285956
aa(lp489
F2.79908447122
aa(lp490
F2.0879926053
aa(lp491
F1.40360347919
aa(lp492
F2.4268499866
aa(lp493
F1.88018540042
aa(lp494
F1.74555762839
aa(lp495
F1.51724202635
aa(lp496
F1.53506927533
aa(lp497
F1.4263914408
aa(lp498
F1.95947215022
aa(lp499
F1.64572427735
aa(lp500
F2.11015941872
aa.