ccopy_reg
_reconstructor
p0
(csklearn.mixture.gmm
GMM
p1
c__builtin__
object
p2
Ntp3
Rp4
(dp5
S'min_covar'
p6
F0.001
sS'verbose'
p7
I0
sS'covariance_type'
p8
S'diag'
p9
sS'converged_'
p10
I01
sS'n_iter'
p11
I100
sS'covars_'
p12
cnumpy.core.multiarray
_reconstruct
p13
(cnumpy
ndarray
p14
(I0
tp15
S'b'
p16
tp17
Rp18
(I1
(I3
I1
tp19
cnumpy
dtype
p20
(S'f8'
p21
I0
I1
tp22
Rp23
(I3
S'<'
p24
NNNI-1
I-1
I0
tp25
bI00
S'\xfd1o\xf2\xe1r\x00@\xd4\xf7\xe1\x9c]\x93\xce?\xda\x95i\x14\x94\xc5\xf0?'
p26
tp27
bsS'weights_'
p28
g13
(g14
(I0
tp29
g16
tp30
Rp31
(I1
(I3
tp32
g23
I00
S'\xcc\xafC\xc4d\xb1\xd9?@>?\x91\x1a\x08\xc9?\x1f\xb1\x1c\xf3\x8d\xca\xd9?'
p33
tp34
bsS'random_state'
p35
NsS'thresh'
p36
NsS'n_components'
p37
I3
sS'tol'
p38
F0.001
sS'params'
p39
S'wmc'
p40
sS'means_'
p41
g13
(g14
(I0
tp42
g16
tp43
Rp44
(I1
(I3
I1
tp45
g23
I00
S'\xd4\xdeA\x8d\n\xb1\x11@Y\x0eQ\x96\x88\xd1\xf7?\xe9\xe5\xb7\xd1}\xe9\x13@'
p46
tp47
bsS'init_params'
p48
g40
sS'n_init'
p49
I1
sb.