(lp0
(F1.82329453732
F-1.4992447369
tp1
a(F3.13016269693
F-2.82060287525
tp2
a(F3.19899141131
F-1.63663574307
tp3
a(F3.40546391951
F-1.42908022431
tp4
a(F3.2657623856
F-2.11951299524
tp5
a(F3.69630000217
F-2.89111209252
tp6
a(F3.40088800267
F-2.57856055654
tp7
a(F3.39253207792
F-1.57577987138
tp8
a(F1.83733659047
F-1.16645171218
tp9
a(F3.48902248467
F-3.57240967433
tp10
a(F3.41928063118
F-1.68474858247
tp11
a(F2.07854449685
F-1.91748709128
tp12
a(F2.44771784082
F-2.17239053499
tp13
a(F3.32457526463
F-1.55462469173
tp14
a(F4.09362643879
F-1.35411585325
tp15
a(F2.76856157747
F-1.86819530648
tp16
a(F3.29439932531
F-1.70651101276
tp17
a(F2.71598593991
F-2.33352070288
tp18
a(F2.86093108965
F-1.59880983617
tp19
a(F2.208496881
F-1.74117290743
tp20
a(F3.56303352132
F-1.59428750923
tp21
a(F2.66805041146
F-1.50746159893
tp22
a(F4.11720552095
F-1.42878551779
tp23
a(F3.56278222294
F-0.863503814077
tp24
a(F2.33838612662
F-2.68209963478
tp25
a(F3.62193459592
F-3.60694638517
tp26
a(F3.23730485936
F-1.72389864373
tp27
a(F3.87633567077
F-2.88700329846
tp28
a(F1.7624499768
F-2.08949606355
tp29
a(F4.05447671371
F-1.67435212777
tp30
a(F3.69303881209
F-1.78953486295
tp31
a(F2.88564604462
F-1.78047469256
tp32
a(F2.76830730896
F-2.28638983051
tp33
a(F3.06154393779
F-1.79540514744
tp34
a(F3.50126907334
F-1.46893325837
tp35
a(F3.22004844511
F-2.18923139276
tp36
a(F3.24636727045
F-1.34469690712
tp37
a(F2.71106024473
F-2.12211063007
tp38
a(F1.57178378373
F-2.78040354719
tp39
a(F2.6768295192
F-1.89921133814
tp40
a(F4.38421133059
F-1.5950988726
tp41
a(F3.87364841261
F-1.32994387772
tp42
a(F3.34046121279
F-1.61784788785
tp43
a(F3.73731721788
F-2.08111369188
tp44
a(F2.50516801181
F-2.84368814883
tp45
a(F2.97361078688
F-0.784413806276
tp46
a(F1.91159453715
F-1.77046472903
tp47
a(F3.71609032498
F-2.40648329575
tp48
a(F3.66346979059
F-1.3753506021
tp49
a(F3.68071593079
F-0.961100771558
tp50
a(F3.411545809
F-4.03975165181
tp51
a(F3.27986479632
F-1.01955049504
tp52
a(F2.90600577671
F-1.68287457053
tp53
a(F3.28777545391
F-1.55995816188
tp54
a(F3.74875896098
F-2.83530677305
tp55
a(F3.4582744176
F-1.84700493416
tp56
a(F3.38711301605
F-1.52663040581
tp57
a(F4.19947104744
F-1.40425592244
tp58
a(F3.67642158436
F-1.12004989282
tp59
a(F1.89111003479
F-1.08174208859
tp60
a(F2.8733075327
F-1.70211014987
tp61
a(F3.56965538143
F-2.52080981819
tp62
a(F2.9539538686
F-2.41229294611
tp63
a(F3.08976909176
F-1.35929437904
tp64
a(F2.36954635977
F-1.99240105442
tp65
a(F4.07198673387
F-2.53641332991
tp66
a(F1.06619191208
F-1.74366050849
tp67
a(F3.54828999136
F-1.42715396667
tp68
a(F1.37130191225
F-1.11914277382
tp69
a(F3.91564739939
F-3.2402747144
tp70
a(F4.73445895031
F-2.52520892475
tp71
a(F2.97623566615
F-2.66489989658
tp72
a(F2.61414180818
F-2.15334650634
tp73
a(F4.23353261546
F-2.33895124768
tp74
a(F3.42049185982
F-1.71123346406
tp75
a(F2.71314038993
F-1.83562459982
tp76
a(F2.17910891417
F-1.91583047049
tp77
a(F1.61115198821
F-1.42103640957
tp78
a(F3.55842836837
F-2.55946189211
tp79
a(F2.96556376469
F-1.59179063541
tp80
a(F2.79207431827
F-2.3273399762
tp81
a(F4.00358678404
F-2.18197109754
tp82
a(F4.06452975997
F-0.93557110855
tp83
a(F2.4988362743
F-1.68108606891
tp84
a(F2.75311762232
F-1.20656424018
tp85
a(F3.56238330546
F-3.28026086544
tp86
a(F3.71355463724
F-1.78585281958
tp87
a(F3.88489366697
F-1.42217005134
tp88
a(F1.71844565415
F-2.2837240487
tp89
a(F2.83171334131
F-1.52727332962
tp90
a(F3.10627718877
F-1.82682277087
tp91
a(F3.02879390061
F-1.58872133083
tp92
a(F2.20429258506
F-2.18342357455
tp93
a(F2.9954686858
F-2.77119183362
tp94
a(F2.16759066821
F-1.81267646435
tp95
a(F3.49864233387
F-1.78353113427
tp96
a(F3.98771362443
F-1.06113613588
tp97
a(F3.48308483748
F-1.07048188172
tp98
a(F1.1003874556
F-1.97840176138
tp99
a(F3.36588641934
F-0.96987363
tp100
a(F4.1960503726
F-1.9056476105
tp101
a(F3.69468592777
F-1.64850146287
tp102
a(F4.16825444793
F-2.13566286855
tp103
a(F3.18586356245
F-1.78898067891
tp104
a(F3.97824857133
F-1.5945655896
tp105
a(F4.96510565909
F-2.52648061367
tp106
a(F4.45325582864
F-2.55705877673
tp107
a(F4.04326838023
F-1.11388713437
tp108
a(F5.40609509617
F-1.50288722886
tp109
a(F4.62866319778
F-1.42542408234
tp110
a(F3.93531935025
F-1.28797690584
tp111
a(F4.41866752447
F-1.07133821889
tp112
a(F4.57488416735
F-0.713165785731
tp113
a(F4.87924136515
F-3.01153955321
tp114
a(F4.48116610209
F-1.37989977916
tp115
a(F3.67662057116
F-0.692297519304
tp116
a(F4.92295948382
F-0.727190731063
tp117
a(F4.54121100083
F-2.53384171527
tp118
a(F4.75935009075
F-0.929138651296
tp119
a(F1.29902915922
F-2.33187817759
tp120
a(F5.68628020645
F-0.231546417246
tp121
a(F4.32697718549
F-0.972515452602
tp122
a(F4.37378656455
F-1.0077866526
tp123
a(F4.47069622866
F-1.56058385502
tp124
a(F5.91718543404
F-1.00554919031
tp125
a(F6.42507270883
F-1.19967944367
tp126
a(F4.61581525018
F-1.52683462248
tp127
a(F3.68475524463
F-1.65066660398
tp128
a(F4.47625581711
F-1.04719981586
tp129
a(F1.61291564756
F-1.3093398441
tp130
a(F4.82413319479
F-1.699976438
tp131
a(F4.0020980109
F-1.51172069628
tp132
a(F4.49770058985
F-1.32178003436
tp133
a(F5.00454523947
F-1.79525990434
tp134
a(F5.17503972069
F-1.85352873962
tp135
a(F4.95798078099
F-1.27645719575
tp136
a(F3.84440640012
F-2.66750758996
tp137
a(F3.04512122698
F-1.14032146562
tp138
a(F3.61806338
F-0.261980578867
tp139
a(F5.0177435527
F-2.76060938522
tp140
a(F1.82631271057
F-1.88912752971
tp141
a(F5.5155317352
F-1.21328293589
tp142
a(F5.34772933266
F-1.09667074372
tp143
a(F3.745005894
F-1.3623229042
tp144
a(F5.59451916107
F-1.36123016427
tp145
a(F4.65334231333
F0.399832436439
tp146
a(F4.82113358022
F-1.81204065118
tp147
a(F4.55753019147
F-0.950756005927
tp148
a(F4.47113043264
F-0.616411172377
tp149
a(F3.40731791835
F-1.31734774025
tp150
a(F4.07663294891
F-2.39530228418
tp151
a(F2.12914041881
F-1.41545190555
tp152
a(F4.95988358516
F-0.448846895811
tp153
a(F5.14203194794
F-2.08642625859
tp154
a(F3.67286393679
F-1.42854129547
tp155
a(F3.78462243352
F-2.69706115315
tp156
a(F4.9564881998
F-1.39265430862
tp157
a(F4.09539526059
F-2.08910897176
tp158
a(F4.63653932615
F-0.856077437883
tp159
a(F4.10456402534
F-1.79016880336
tp160
a(F4.18381747151
F-1.60567373604
tp161
a(F4.81976820522
F-0.988175383191
tp162
a(F5.10813983451
F-1.71576752538
tp163
a(F3.38657707927
F-0.375744541391
tp164
a(F5.30614297572
F-1.40395128862
tp165
a(F4.13015018278
F-1.99257137079
tp166
a(F3.96674911202
F-1.51704635862
tp167
a(F3.77063068844
F-1.54302041417
tp168
a(F3.92476338934
F-0.606243252799
tp169
a(F5.57841808702
F-1.22884353339
tp170
a(F4.96895450886
F-2.85744842343
tp171
a(F5.53479463635
F-1.84790903291
tp172
a(F4.92461999298
F-1.52451927746
tp173
a(F4.63798056899
F-1.00895289058
tp174
a(F4.76426985607
F-2.29763808138
tp175
a(F5.19776706799
F-1.30409839099
tp176
a(F5.34676364602
F-2.26793040515
tp177
a(F3.36018904457
F-2.43967111281
tp178
a(F3.99509265651
F-2.68365385391
tp179
a(F4.87099173565
F-0.819336114784
tp180
a(F4.52500352234
F-1.21482209098
tp181
a(F1.32063597289
F-1.43139852361
tp182
a(F4.44571869988
F-2.03874503066
tp183
a(F4.76234481869
F0.248602191352
tp184
a(F5.00965541154
F-3.36317639543
tp185
a(F4.99359206967
F-0.981063750897
tp186
a(F5.16411285184
F-0.865703005402
tp187
a(F5.16518531848
F-2.23565251087
tp188
a(F5.28401383912
F-2.47799207041
tp189
a(F3.90128673056
F-1.10189046428
tp190
a(F5.08816397087
F-1.28789057441
tp191
a(F4.02648140763
F-2.36472862364
tp192
a(F1.12460867835
F-0.973651697398
tp193
a(F4.548816562
F-1.6932862279
tp194
a(F5.67246144681
F-1.54012610553
tp195
a(F4.4462902475
F-3.0598013524
tp196
a(F4.1434499794
F-1.3780285617
tp197
a(F4.52605369453
F-1.71727469701
tp198
a(F4.84801557232
F-1.10494216217
tp199
a(F4.37141558397
F-1.70322068155
tp200
a(F4.85637031621
F-1.40002830488
tp201
a(F4.70509971216
F-1.37705812719
tp202
a(F4.32385056979
F-0.664233214433
tp203
a(F5.36118535458
F-2.11732902088
tp204
a(F4.30061240578
F-1.10165056753
tp205
a(F5.24160653347
F-1.5705575572
tp206
a(F5.54913444577
F-0.902278494843
tp207
a(F4.55850192472
F-0.144307086905
tp208
a(F5.69057072612
F-1.32144089149
tp209
a(F5.44764177152
F-0.367450360534
tp210
a(F5.06055833043
F-0.0523228489115
tp211
a(F4.54262737225
F0.475366238388
tp212
a(F5.46445000424
F0.455159551252
tp213
a(F5.12850063333
F-1.51692299149
tp214
a(F6.36943485053
F-0.964522280308
tp215
a(F8.44236949092
F-0.177742549963
tp216
a(F4.12989091441
F-0.914701795957
tp217
a(F6.30525485502
F-0.035633605832
tp218
a(F5.49366080859
F-1.23369767392
tp219
a(F5.25609104635
F0.171467530915
tp220
a(F6.43604220055
F0.699390558532
tp221
a(F5.38911502135
F-1.27037310204
tp222
a(F5.57495884144
F-0.283679417163
tp223
a(F4.55697671536
F0.300566357989
tp224
a(F5.33101616419
F-1.28665063523
tp225
a(F6.03548751811
F-1.21724378887
tp226
a(F4.70509634485
F-0.0289807445345
tp227
a(F4.38216997602
F0.189093590912
tp228
a(F5.12277815918
F-0.321070249277
tp229
a(F5.91843079018
F0.0228806898692
tp230
a(F5.38153944813
F-1.1726391433
tp231
a(F4.35289993173
F-1.0540793558
tp232
a(F5.90420532428
F-0.774786082937
tp233
a(F5.61878701883
F-0.540419193517
tp234
a(F5.36137319508
F1.00386013781
tp235
a(F4.95070173947
F-0.832151859098
tp236
a(F5.60659667077
F-0.668605391221
tp237
a(F5.23466628669
F0.872776170473
tp238
a(F5.61529430768
F-0.52409437566
tp239
a(F3.42090191939
F-0.255259614993
tp240
a(F0.824805519456
F-1.21777745448
tp241
a(F5.42972126658
F-0.877056827633
tp242
a(F3.82976953919
F-2.18735044166
tp243
a(F5.57758339281
F0.329397226337
tp244
a(F6.42861746245
F-1.11299722656
tp245
a(F6.64468937923
F-0.828456567891
tp246
a(F5.17118443317
F0.185041029783
tp247
a(F6.76601581832
F0.265517318632
tp248
a(F5.30969710643
F-0.638113371564
tp249
a(F5.3359299266
F-2.10852635084
tp250
a(F5.58412799617
F-1.37562030008
tp251
a(F5.44091110428
F-1.01484466052
tp252
a(F4.80979772699
F-0.730503342292
tp253
a(F5.73259131789
F-0.249610789943
tp254
a(F6.27941858449
F-0.157605837674
tp255
a(F5.28723075895
F-0.460014839227
tp256
a(F5.73201585664
F-0.523270778834
tp257
a(F5.23623809262
F-0.087136349896
tp258
a(F4.22952218845
F-0.173063832644
tp259
a(F4.9291155826
F-0.667282373302
tp260
a(F5.45146715498
F-1.1272195474
tp261
a(F4.22465094183
F0.737761590509
tp262
a(F5.16264506605
F-0.542713246742
tp263
a(F5.18038309047
F-0.194474278207
tp264
a(F5.20614058249
F1.17796077996
tp265
a(F5.70715599501
F0.922584060651
tp266
a(F5.03811589628
F0.0442869360157
tp267
a(F5.36585489683
F-0.676896104587
tp268
a(F2.15439386618
F-2.61529685001
tp269
a(F5.57375011768
F-0.635348790948
tp270
a(F4.77319065241
F-1.35125672725
tp271
a(F5.92315637463
F-0.570071692435
tp272
a(F5.81613349248
F-1.25544101368
tp273
a(F6.32609487256
F-0.270276010289
tp274
a(F6.41110634085
F-0.5310948668
tp275
a(F3.68125108685
F0.189830917057
tp276
a(F5.00619122003
F-0.215577541944
tp277
a(F4.23732105693
F-0.940227625089
tp278
a(F5.83565615038
F-2.377150441
tp279
a(F5.79393561586
F-0.634196480803
tp280
a(F4.8527968517
F0.75416867491
tp281
a(F6.28606623353
F-0.376246641038
tp282
a(F7.42525148136
F0.216274191562
tp283
a(F4.36320479326
F0.284610063437
tp284
a(F4.79784964268
F-1.25111742418
tp285
a(F4.90259730581
F-0.0820643107157
tp286
a(F5.18886015137
F-0.12943048921
tp287
a(F0.671986392548
F-1.6728436831
tp288
a(F6.38112013373
F-0.225594446995
tp289
a(F5.32819937075
F-3.02767577498
tp290
a(F5.71588797811
F-1.99475983554
tp291
a(F5.34391343603
F-1.19374938048
tp292
a(F5.28525340887
F0.489435434506
tp293
a(F6.81919144933
F-1.91225142708
tp294
a(F5.88200083108
F-1.31369830855
tp295
a(F4.94377717474
F-0.535972461431
tp296
a(F5.40397294025
F-1.18844060695
tp297
a(F1.21815702587
F-1.49718327256
tp298
a(F1.93432801858
F-2.02389480066
tp299
a(F2.34401711901
F-1.20979254083
tp300
a(F1.19441467275
F-0.75339720478
tp301
a(F1.57701070747
F-1.70601624449
tp302
a(F2.14150537746
F-1.71313685696
tp303
a(F1.66479984012
F-2.26329096374
tp304
a(F1.09502517524
F-2.54234056222
tp305
a(F1.51999656794
F-1.43164913161
tp306
a(F1.48294169983
F-1.52429927244
tp307
a(F1.75520623361
F-1.94376516862
tp308
a(F0.757961789197
F-0.849985223192
tp309
a(F1.62424494022
F-2.62567904155
tp310
a(F0.655151313352
F-1.91670731989
tp311
a(F1.83379047797
F-1.63073951414
tp312
a(F1.3143365238
F-1.54293187257
tp313
a(F2.13994335878
F-1.78434651864
tp314
a(F0.669207081065
F-1.35660549092
tp315
a(F1.37881350893
F-1.63381855354
tp316
a(F1.53461531409
F-1.78709485069
tp317
a(F1.91233059361
F-1.94955681791
tp318
a(F1.56553501423
F-1.65026633218
tp319
a(F0.827725043755
F-1.29787386369
tp320
a(F1.85103536176
F-1.02989325057
tp321
a(F1.25141834089
F-1.96312797941
tp322
a(F1.67442519693
F-1.82663722734
tp323
a(F1.27584148307
F-1.60845815177
tp324
a(F1.75387487547
F-1.50199181614
tp325
a(F1.31188205039
F-1.58122615177
tp326
a(F0.464405867023
F-0.210259310811
tp327
a(F1.41141823323
F-1.50631510196
tp328
a(F1.97109747437
F-1.44998309973
tp329
a(F2.36679946973
F-1.22353656784
tp330
a(F1.4254813569
F-1.15405420219
tp331
a(F1.05787508607
F-1.58026230043
tp332
a(F0.961170274541
F-1.4645534418
tp333
a(F1.5697999881
F-1.31994120467
tp334
a(F1.74298020543
F-1.79252135658
tp335
a.