(lp0
(lp1
F-1.4992447369
aa(lp2
F-2.82060287525
aa(lp3
F-1.63663574307
aa(lp4
F-1.42908022431
aa(lp5
F-2.11951299524
aa(lp6
F-2.89111209252
aa(lp7
F-2.57856055654
aa(lp8
F-1.57577987138
aa(lp9
F-1.16645171218
aa(lp10
F-3.57240967433
aa(lp11
F-1.68474858247
aa(lp12
F-1.91748709128
aa(lp13
F-2.17239053499
aa(lp14
F-1.55462469173
aa(lp15
F-1.35411585325
aa(lp16
F-1.86819530648
aa(lp17
F-1.70651101276
aa(lp18
F-2.33352070288
aa(lp19
F-1.59880983617
aa(lp20
F-1.74117290743
aa(lp21
F-1.59428750923
aa(lp22
F-1.50746159893
aa(lp23
F-1.42878551779
aa(lp24
F-0.863503814077
aa(lp25
F-2.68209963478
aa(lp26
F-3.60694638517
aa(lp27
F-1.72389864373
aa(lp28
F-2.88700329846
aa(lp29
F-2.08949606355
aa(lp30
F-1.67435212777
aa(lp31
F-1.78953486295
aa(lp32
F-1.78047469256
aa(lp33
F-2.28638983051
aa(lp34
F-1.79540514744
aa(lp35
F-1.46893325837
aa(lp36
F-2.18923139276
aa(lp37
F-1.34469690712
aa(lp38
F-2.12211063007
aa(lp39
F-2.78040354719
aa(lp40
F-1.89921133814
aa(lp41
F-1.5950988726
aa(lp42
F-1.32994387772
aa(lp43
F-1.61784788785
aa(lp44
F-2.08111369188
aa(lp45
F-2.84368814883
aa(lp46
F-0.784413806276
aa(lp47
F-1.77046472903
aa(lp48
F-2.40648329575
aa(lp49
F-1.3753506021
aa(lp50
F-0.961100771558
aa(lp51
F-4.03975165181
aa(lp52
F-1.01955049504
aa(lp53
F-1.68287457053
aa(lp54
F-1.55995816188
aa(lp55
F-2.83530677305
aa(lp56
F-1.84700493416
aa(lp57
F-1.52663040581
aa(lp58
F-1.40425592244
aa(lp59
F-1.12004989282
aa(lp60
F-1.08174208859
aa(lp61
F-1.70211014987
aa(lp62
F-2.52080981819
aa(lp63
F-2.41229294611
aa(lp64
F-1.35929437904
aa(lp65
F-1.99240105442
aa(lp66
F-2.53641332991
aa(lp67
F-1.74366050849
aa(lp68
F-1.42715396667
aa(lp69
F-1.11914277382
aa(lp70
F-3.2402747144
aa(lp71
F-2.52520892475
aa(lp72
F-2.66489989658
aa(lp73
F-2.15334650634
aa(lp74
F-2.33895124768
aa(lp75
F-1.71123346406
aa(lp76
F-1.83562459982
aa(lp77
F-1.91583047049
aa(lp78
F-1.42103640957
aa(lp79
F-2.55946189211
aa(lp80
F-1.59179063541
aa(lp81
F-2.3273399762
aa(lp82
F-2.18197109754
aa(lp83
F-0.93557110855
aa(lp84
F-1.68108606891
aa(lp85
F-1.20656424018
aa(lp86
F-3.28026086544
aa(lp87
F-1.78585281958
aa(lp88
F-1.42217005134
aa(lp89
F-2.2837240487
aa(lp90
F-1.52727332962
aa(lp91
F-1.82682277087
aa(lp92
F-1.58872133083
aa(lp93
F-2.18342357455
aa(lp94
F-2.77119183362
aa(lp95
F-1.81267646435
aa(lp96
F-1.78353113427
aa(lp97
F-1.06113613588
aa(lp98
F-1.07048188172
aa(lp99
F-1.97840176138
aa(lp100
F-0.96987363
aa(lp101
F-1.9056476105
aa(lp102
F-1.64850146287
aa(lp103
F-2.13566286855
aa(lp104
F-1.78898067891
aa(lp105
F-1.5945655896
aa(lp106
F-2.52648061367
aa(lp107
F-2.55705877673
aa(lp108
F-1.11388713437
aa(lp109
F-1.50288722886
aa(lp110
F-1.42542408234
aa(lp111
F-1.28797690584
aa(lp112
F-1.07133821889
aa(lp113
F-0.713165785731
aa(lp114
F-3.01153955321
aa(lp115
F-1.37989977916
aa(lp116
F-0.692297519304
aa(lp117
F-0.727190731063
aa(lp118
F-2.53384171527
aa(lp119
F-0.929138651296
aa(lp120
F-2.33187817759
aa(lp121
F-0.231546417246
aa(lp122
F-0.972515452602
aa(lp123
F-1.0077866526
aa(lp124
F-1.56058385502
aa(lp125
F-1.00554919031
aa(lp126
F-1.19967944367
aa(lp127
F-1.52683462248
aa(lp128
F-1.65066660398
aa(lp129
F-1.04719981586
aa(lp130
F-1.3093398441
aa(lp131
F-1.699976438
aa(lp132
F-1.51172069628
aa(lp133
F-1.32178003436
aa(lp134
F-1.79525990434
aa(lp135
F-1.85352873962
aa(lp136
F-1.27645719575
aa(lp137
F-2.66750758996
aa(lp138
F-1.14032146562
aa(lp139
F-0.261980578867
aa(lp140
F-2.76060938522
aa(lp141
F-1.88912752971
aa(lp142
F-1.21328293589
aa(lp143
F-1.09667074372
aa(lp144
F-1.3623229042
aa(lp145
F-1.36123016427
aa(lp146
F0.399832436439
aa(lp147
F-1.81204065118
aa(lp148
F-0.950756005927
aa(lp149
F-0.616411172377
aa(lp150
F-1.31734774025
aa(lp151
F-2.39530228418
aa(lp152
F-1.41545190555
aa(lp153
F-0.448846895811
aa(lp154
F-2.08642625859
aa(lp155
F-1.42854129547
aa(lp156
F-2.69706115315
aa(lp157
F-1.39265430862
aa(lp158
F-2.08910897176
aa(lp159
F-0.856077437883
aa(lp160
F-1.79016880336
aa(lp161
F-1.60567373604
aa(lp162
F-0.988175383191
aa(lp163
F-1.71576752538
aa(lp164
F-0.375744541391
aa(lp165
F-1.40395128862
aa(lp166
F-1.99257137079
aa(lp167
F-1.51704635862
aa(lp168
F-1.54302041417
aa(lp169
F-0.606243252799
aa(lp170
F-1.22884353339
aa(lp171
F-2.85744842343
aa(lp172
F-1.84790903291
aa(lp173
F-1.52451927746
aa(lp174
F-1.00895289058
aa(lp175
F-2.29763808138
aa(lp176
F-1.30409839099
aa(lp177
F-2.26793040515
aa(lp178
F-2.43967111281
aa(lp179
F-2.68365385391
aa(lp180
F-0.819336114784
aa(lp181
F-1.21482209098
aa(lp182
F-1.43139852361
aa(lp183
F-2.03874503066
aa(lp184
F0.248602191352
aa(lp185
F-3.36317639543
aa(lp186
F-0.981063750897
aa(lp187
F-0.865703005402
aa(lp188
F-2.23565251087
aa(lp189
F-2.47799207041
aa(lp190
F-1.10189046428
aa(lp191
F-1.28789057441
aa(lp192
F-2.36472862364
aa(lp193
F-0.973651697398
aa(lp194
F-1.6932862279
aa(lp195
F-1.54012610553
aa(lp196
F-3.0598013524
aa(lp197
F-1.3780285617
aa(lp198
F-1.71727469701
aa(lp199
F-1.10494216217
aa(lp200
F-1.70322068155
aa(lp201
F-1.40002830488
aa(lp202
F-1.37705812719
aa(lp203
F-0.664233214433
aa(lp204
F-2.11732902088
aa(lp205
F-1.10165056753
aa(lp206
F-1.5705575572
aa(lp207
F-0.902278494843
aa(lp208
F-0.144307086905
aa(lp209
F-1.32144089149
aa(lp210
F-0.367450360534
aa(lp211
F-0.0523228489115
aa(lp212
F0.475366238388
aa(lp213
F0.455159551252
aa(lp214
F-1.51692299149
aa(lp215
F-0.964522280308
aa(lp216
F-0.177742549963
aa(lp217
F-0.914701795957
aa(lp218
F-0.035633605832
aa(lp219
F-1.23369767392
aa(lp220
F0.171467530915
aa(lp221
F0.699390558532
aa(lp222
F-1.27037310204
aa(lp223
F-0.283679417163
aa(lp224
F0.300566357989
aa(lp225
F-1.28665063523
aa(lp226
F-1.21724378887
aa(lp227
F-0.0289807445345
aa(lp228
F0.189093590912
aa(lp229
F-0.321070249277
aa(lp230
F0.0228806898692
aa(lp231
F-1.1726391433
aa(lp232
F-1.0540793558
aa(lp233
F-0.774786082937
aa(lp234
F-0.540419193517
aa(lp235
F1.00386013781
aa(lp236
F-0.832151859098
aa(lp237
F-0.668605391221
aa(lp238
F0.872776170473
aa(lp239
F-0.52409437566
aa(lp240
F-0.255259614993
aa(lp241
F-1.21777745448
aa(lp242
F-0.877056827633
aa(lp243
F-2.18735044166
aa(lp244
F0.329397226337
aa(lp245
F-1.11299722656
aa(lp246
F-0.828456567891
aa(lp247
F0.185041029783
aa(lp248
F0.265517318632
aa(lp249
F-0.638113371564
aa(lp250
F-2.10852635084
aa(lp251
F-1.37562030008
aa(lp252
F-1.01484466052
aa(lp253
F-0.730503342292
aa(lp254
F-0.249610789943
aa(lp255
F-0.157605837674
aa(lp256
F-0.460014839227
aa(lp257
F-0.523270778834
aa(lp258
F-0.087136349896
aa(lp259
F-0.173063832644
aa(lp260
F-0.667282373302
aa(lp261
F-1.1272195474
aa(lp262
F0.737761590509
aa(lp263
F-0.542713246742
aa(lp264
F-0.194474278207
aa(lp265
F1.17796077996
aa(lp266
F0.922584060651
aa(lp267
F0.0442869360157
aa(lp268
F-0.676896104587
aa(lp269
F-2.61529685001
aa(lp270
F-0.635348790948
aa(lp271
F-1.35125672725
aa(lp272
F-0.570071692435
aa(lp273
F-1.25544101368
aa(lp274
F-0.270276010289
aa(lp275
F-0.5310948668
aa(lp276
F0.189830917057
aa(lp277
F-0.215577541944
aa(lp278
F-0.940227625089
aa(lp279
F-2.377150441
aa(lp280
F-0.634196480803
aa(lp281
F0.75416867491
aa(lp282
F-0.376246641038
aa(lp283
F0.216274191562
aa(lp284
F0.284610063437
aa(lp285
F-1.25111742418
aa(lp286
F-0.0820643107157
aa(lp287
F-0.12943048921
aa(lp288
F-1.6728436831
aa(lp289
F-0.225594446995
aa(lp290
F-3.02767577498
aa(lp291
F-1.99475983554
aa(lp292
F-1.19374938048
aa(lp293
F0.489435434506
aa(lp294
F-1.91225142708
aa(lp295
F-1.31369830855
aa(lp296
F-0.535972461431
aa(lp297
F-1.18844060695
aa(lp298
F-1.49718327256
aa(lp299
F-2.02389480066
aa(lp300
F-1.20979254083
aa(lp301
F-0.75339720478
aa(lp302
F-1.70601624449
aa(lp303
F-1.71313685696
aa(lp304
F-2.26329096374
aa(lp305
F-2.54234056222
aa(lp306
F-1.43164913161
aa(lp307
F-1.52429927244
aa(lp308
F-1.94376516862
aa(lp309
F-0.849985223192
aa(lp310
F-2.62567904155
aa(lp311
F-1.91670731989
aa(lp312
F-1.63073951414
aa(lp313
F-1.54293187257
aa(lp314
F-1.78434651864
aa(lp315
F-1.35660549092
aa(lp316
F-1.63381855354
aa(lp317
F-1.78709485069
aa(lp318
F-1.94955681791
aa(lp319
F-1.65026633218
aa(lp320
F-1.29787386369
aa(lp321
F-1.02989325057
aa(lp322
F-1.96312797941
aa(lp323
F-1.82663722734
aa(lp324
F-1.60845815177
aa(lp325
F-1.50199181614
aa(lp326
F-1.58122615177
aa(lp327
F-0.210259310811
aa(lp328
F-1.50631510196
aa(lp329
F-1.44998309973
aa(lp330
F-1.22353656784
aa(lp331
F-1.15405420219
aa(lp332
F-1.58026230043
aa(lp333
F-1.4645534418
aa(lp334
F-1.31994120467
aa(lp335
F-1.79252135658
aa.