(lp0
(F-1.4992447369
F2.1208363001
tp1
a(F-2.82060287525
F3.06451958835
tp2
a(F-1.63663574307
F3.19489544435
tp3
a(F-1.42908022431
F3.41677611591
tp4
a(F-2.11951299524
F3.25862105842
tp5
a(F-2.89111209252
F3.51452600979
tp6
a(F-2.57856055654
F3.28253726934
tp7
a(F-1.57577987138
F2.97715308097
tp8
a(F-1.16645171218
F2.20918327388
tp9
a(F-3.57240967433
F3.30841075591
tp10
a(F-1.68474858247
F3.29066722159
tp11
a(F-1.91748709128
F2.27626815832
tp12
a(F-2.17239053499
F2.55184339882
tp13
a(F-1.55462469173
F3.14640377278
tp14
a(F-1.35411585325
F3.75272166309
tp15
a(F-1.86819530648
F2.99119305293
tp16
a(F-1.70651101276
F3.08425262189
tp17
a(F-2.33352070288
F2.82772342787
tp18
a(F-1.59880983617
F2.90870364927
tp19
a(F-1.74117290743
F2.51367412919
tp20
a(F-1.59428750923
F3.19660399636
tp21
a(F-1.50746159893
F2.64477302724
tp22
a(F-1.42878551779
F3.92351401969
tp23
a(F-0.863503814077
F3.45691338887
tp24
a(F-2.68209963478
F2.52685810362
tp25
a(F-3.60694638517
F3.31423346352
tp26
a(F-1.72389864373
F3.15401730059
tp27
a(F-2.88700329846
F3.64167287228
tp28
a(F-2.08949606355
F2.07375383409
tp29
a(F-1.67435212777
F3.69193137248
tp30
a(F-1.78953486295
F3.41386019157
tp31
a(F-1.78047469256
F2.85802121827
tp32
a(F-2.28638983051
F2.76723768658
tp33
a(F-1.79540514744
F3.13603169421
tp34
a(F-1.46893325837
F3.36407185325
tp35
a(F-2.18923139276
F3.36809955188
tp36
a(F-1.34469690712
F3.16912540525
tp37
a(F-2.12211063007
F2.73078489718
tp38
a(F-2.78040354719
F1.90094356665
tp39
a(F-1.89921133814
F2.62307519252
tp40
a(F-1.5950988726
F3.91593828251
tp41
a(F-1.32994387772
F3.42863073272
tp42
a(F-1.61784788785
F3.30734241112
tp43
a(F-2.08111369188
F3.49283128834
tp44
a(F-2.84368814883
F2.55971212153
tp45
a(F-0.784413806276
F3.0538561586
tp46
a(F-1.77046472903
F2.17463172891
tp47
a(F-2.40648329575
F3.52627905521
tp48
a(F-1.3753506021
F3.07285570916
tp49
a(F-0.961100771558
F3.51204683641
tp50
a(F-4.03975165181
F3.3862877385
tp51
a(F-1.01955049504
F3.72072666895
tp52
a(F-1.68287457053
F2.76982657946
tp53
a(F-1.55995816188
F3.06659955511
tp54
a(F-2.83530677305
F3.45360754124
tp55
a(F-1.84700493416
F3.5026423285
tp56
a(F-1.52663040581
F3.3732968844
tp57
a(F-1.40425592244
F3.90742781656
tp58
a(F-1.12004989282
F3.46124008121
tp59
a(F-1.08174208859
F2.09633234134
tp60
a(F-1.70211014987
F2.58244635395
tp61
a(F-2.52080981819
F3.58910936935
tp62
a(F-2.41229294611
F3.10129041485
tp63
a(F-1.35929437904
F3.06788381326
tp64
a(F-1.99240105442
F2.33987241637
tp65
a(F-2.53641332991
F3.95690798768
tp66
a(F-1.74366050849
F1.42449367456
tp67
a(F-1.42715396667
F3.32082985534
tp68
a(F-1.11914277382
F1.71290399886
tp69
a(F-3.2402747144
F3.65993041061
tp70
a(F-2.52520892475
F4.32362625471
tp71
a(F-2.66489989658
F2.82890220467
tp72
a(F-2.15334650634
F2.6392099699
tp73
a(F-2.33895124768
F4.00540604997
tp74
a(F-1.71123346406
F3.30473836401
tp75
a(F-1.83562459982
F2.9028972057
tp76
a(F-1.91583047049
F2.30477445314
tp77
a(F-1.42103640957
F2.01445980073
tp78
a(F-2.55946189211
F3.26967831498
tp79
a(F-1.59179063541
F2.76370077759
tp80
a(F-2.3273399762
F2.94959714028
tp81
a(F-2.18197109754
F3.70639605462
tp82
a(F-0.93557110855
F3.76607812372
tp83
a(F-1.68108606891
F2.44863656945
tp84
a(F-1.20656424018
F2.8900787736
tp85
a(F-3.28026086544
F3.30546815722
tp86
a(F-1.78585281958
F3.5219991348
tp87
a(F-1.42217005134
F3.92765231245
tp88
a(F-2.2837240487
F1.99676868891
tp89
a(F-1.52727332962
F2.84759432608
tp90
a(F-1.82682277087
F3.04633209441
tp91
a(F-1.58872133083
F2.91789442486
tp92
a(F-2.18342357455
F2.23758294237
tp93
a(F-2.77119183362
F2.90743714513
tp94
a(F-1.81267646435
F2.23392038364
tp95
a(F-1.78353113427
F3.08466861445
tp96
a(F-1.06113613588
F3.73057085083
tp97
a(F-1.07048188172
F3.98934733457
tp98
a(F-1.97840176138
F1.76402456649
tp99
a(F-0.96987363
F3.17634692827
tp100
a(F-1.9056476105
F4.02134801601
tp101
a(F-1.64850146287
F3.59153896354
tp102
a(F-2.13566286855
F3.93200065868
tp103
a(F-1.78898067891
F3.10796512948
tp104
a(F-1.5945655896
F3.72969564666
tp105
a(F-2.52648061367
F4.46085819447
tp106
a(F-2.55705877673
F4.10753221271
tp107
a(F-1.11388713437
F4.05551600156
tp108
a(F-1.50288722886
F4.88409218401
tp109
a(F-1.42542408234
F4.20255452653
tp110
a(F-1.28797690584
F4.05573958373
tp111
a(F-1.07133821889
F3.95792327213
tp112
a(F-0.713165785731
F4.2398249203
tp113
a(F-3.01153955321
F4.47594165697
tp114
a(F-1.37989977916
F3.99947324816
tp115
a(F-0.692297519304
F3.39160733399
tp116
a(F-0.727190731063
F4.26210267284
tp117
a(F-2.53384171527
F4.1443218093
tp118
a(F-0.929138651296
F4.13052675208
tp119
a(F-2.33187817759
F1.58168757387
tp120
a(F-0.231546417246
F5.02472586758
tp121
a(F-0.972515452602
F4.03869291008
tp122
a(F-1.0077866526
F3.90818465875
tp123
a(F-1.56058385502
F3.90822225028
tp124
a(F-1.00554919031
F5.5366649454
tp125
a(F-1.19967944367
F5.52492779029
tp126
a(F-1.52683462248
F4.22503330141
tp127
a(F-1.65066660398
F3.26006131261
tp128
a(F-1.04719981586
F4.48464038892
tp129
a(F-1.3093398441
F1.9397863995
tp130
a(F-1.699976438
F4.29562468804
tp131
a(F-1.51172069628
F4.03606020147
tp132
a(F-1.32178003436
F4.09833853956
tp133
a(F-1.79525990434
F4.422305505
tp134
a(F-1.85352873962
F4.52451143218
tp135
a(F-1.27645719575
F4.45719912788
tp136
a(F-2.66750758996
F3.99813822808
tp137
a(F-1.14032146562
F2.92040359213
tp138
a(F-0.261980578867
F3.58444861243
tp139
a(F-2.76060938522
F4.39509889058
tp140
a(F-1.88912752971
F2.24578349959
tp141
a(F-1.21328293589
F5.20828317533
tp142
a(F-1.09667074372
F4.84110683449
tp143
a(F-1.3623229042
F3.7703436165
tp144
a(F-1.36123016427
F4.88464755342
tp145
a(F0.399832436439
F4.09333617554
tp146
a(F-1.81204065118
F4.55975713687
tp147
a(F-0.950756005927
F4.11038017058
tp148
a(F-0.616411172377
F4.58323914398
tp149
a(F-1.31734774025
F3.54394129791
tp150
a(F-2.39530228418
F3.80604471526
tp151
a(F-1.41545190555
F2.32616570532
tp152
a(F-0.448846895811
F4.33916426343
tp153
a(F-2.08642625859
F4.77327790987
tp154
a(F-1.42854129547
F3.4344757801
tp155
a(F-2.69706115315
F3.62002540789
tp156
a(F-1.39265430862
F4.30558399267
tp157
a(F-2.08910897176
F3.79086859803
tp158
a(F-0.856077437883
F4.39857543504
tp159
a(F-1.79016880336
F3.7651731402
tp160
a(F-1.60567373604
F4.02428317877
tp161
a(F-0.988175383191
F4.81307629779
tp162
a(F-1.71576752538
F4.70409089905
tp163
a(F-0.375744541391
F3.24748455539
tp164
a(F-1.40395128862
F4.80503638244
tp165
a(F-1.99257137079
F3.85818432721
tp166
a(F-1.51704635862
F3.91530727874
tp167
a(F-1.54302041417
F3.67931308715
tp168
a(F-0.606243252799
F3.88486552829
tp169
a(F-1.22884353339
F5.3546200515
tp170
a(F-2.85744842343
F4.57265888682
tp171
a(F-1.84790903291
F4.92664869318
tp172
a(F-1.52451927746
F4.69602030014
tp173
a(F-1.00895289058
F4.13912420532
tp174
a(F-2.29763808138
F3.94004505088
tp175
a(F-1.30409839099
F4.64021340779
tp176
a(F-2.26793040515
F4.58796973673
tp177
a(F-2.43967111281
F3.24347408933
tp178
a(F-2.68365385391
F3.71662883262
tp179
a(F-0.819336114784
F4.45957209553
tp180
a(F-1.21482209098
F4.22159544968
tp181
a(F-1.43139852361
F1.71531478113
tp182
a(F-2.03874503066
F4.1160280682
tp183
a(F0.248602191352
F4.14925176413
tp184
a(F-3.36317639543
F4.49835092744
tp185
a(F-0.981063750897
F4.38934609206
tp186
a(F-0.865703005402
F4.99553192421
tp187
a(F-2.23565251087
F4.59621819291
tp188
a(F-2.47799207041
F4.67380956454
tp189
a(F-1.10189046428
F3.60072847272
tp190
a(F-1.28789057441
F4.40126866039
tp191
a(F-2.36472862364
F3.84877348256
tp192
a(F-0.973651697398
F1.52771654484
tp193
a(F-1.6932862279
F4.26999276296
tp194
a(F-1.54012610553
F5.11442196789
tp195
a(F-3.0598013524
F4.08279938597
tp196
a(F-1.3780285617
F3.88637392412
tp197
a(F-1.71727469701
F4.19281446967
tp198
a(F-1.10494216217
F4.17619829598
tp199
a(F-1.70322068155
F3.96576845062
tp200
a(F-1.40002830488
F4.3679278269
tp201
a(F-1.37705812719
F4.32363860056
tp202
a(F-0.664233214433
F3.99805180431
tp203
a(F-2.11732902088
F4.97828146075
tp204
a(F-1.10165056753
F4.06225172155
tp205
a(F-1.5705575572
F4.612438134
tp206
a(F-0.902278494843
F5.24718169756
tp207
a(F-0.144307086905
F4.27345947893
tp208
a(F-1.32144089149
F4.97384802908
tp209
a(F-0.367450360534
F4.9729329299
tp210
a(F-0.0523228489115
F5.03917862363
tp211
a(F0.475366238388
F4.28277173629
tp212
a(F0.455159551252
F5.04362377203
tp213
a(F-1.51692299149
F4.54960568605
tp214
a(F-0.964522280308
F5.48297366558
tp215
a(F-0.177742549963
F7.69098577153
tp216
a(F-0.914701795957
F3.76895016387
tp217
a(F-0.035633605832
F5.61961116496
tp218
a(F-1.23369767392
F4.91043243699
tp219
a(F0.171467530915
F4.81482941903
tp220
a(F0.699390558532
F5.60132362387
tp221
a(F-1.27037310204
F5.27685422519
tp222
a(F-0.283679417163
F4.97374012329
tp223
a(F0.300566357989
F4.48238225564
tp224
a(F-1.28665063523
F5.20468395276
tp225
a(F-1.21724378887
F5.35116727466
tp226
a(F-0.0289807445345
F4.50944432317
tp227
a(F0.189093590912
F4.1259145796
tp228
a(F-0.321070249277
F4.75263717598
tp229
a(F0.0228806898692
F5.55375166245
tp230
a(F-1.1726391433
F4.99791423731
tp231
a(F-1.0540793558
F4.0541769365
tp232
a(F-0.774786082937
F5.86779703158
tp233
a(F-0.540419193517
F5.10979835371
tp234
a(F1.00386013781
F5.49766027767
tp235
a(F-0.832151859098
F4.66608393612
tp236
a(F-0.668605391221
F5.07167394197
tp237
a(F0.872776170473
F5.01339294307
tp238
a(F-0.52409437566
F5.08772588666
tp239
a(F-0.255259614993
F3.52414605218
tp240
a(F-1.21777745448
F1.23687412299
tp241
a(F-0.877056827633
F5.00135218674
tp242
a(F-2.18735044166
F3.61065462903
tp243
a(F0.329397226337
F5.06172884795
tp244
a(F-1.11299722656
F5.66806818884
tp245
a(F-0.828456567891
F5.82971905481
tp246
a(F0.185041029783
F4.94881363922
tp247
a(F0.265517318632
F5.71018904861
tp248
a(F-0.638113371564
F4.80391878065
tp249
a(F-2.10852635084
F4.81543871462
tp250
a(F-1.37562030008
F5.03691160167
tp251
a(F-1.01484466052
F4.88180073647
tp252
a(F-0.730503342292
F4.60575878864
tp253
a(F-0.249610789943
F5.12939716564
tp254
a(F-0.157605837674
F5.40298180095
tp255
a(F-0.460014839227
F4.71373681104
tp256
a(F-0.523270778834
F5.52658671391
tp257
a(F-0.087136349896
F4.81518675597
tp258
a(F-0.173063832644
F4.04614514108
tp259
a(F-0.667282373302
F4.60389381042
tp260
a(F-1.1272195474
F5.28200259106
tp261
a(F0.737761590509
F3.87521434048
tp262
a(F-0.542713246742
F4.39457934131
tp263
a(F-0.194474278207
F4.68169384706
tp264
a(F1.17796077996
F4.96124325222
tp265
a(F0.922584060651
F5.19950159856
tp266
a(F0.0442869360157
F4.83320204843
tp267
a(F-0.676896104587
F4.78940569774
tp268
a(F-2.61529685001
F2.263998488
tp269
a(F-0.635348790948
F4.99820411065
tp270
a(F-1.35125672725
F4.39559677636
tp271
a(F-0.570071692435
F5.37400315361
tp272
a(F-1.25544101368
F5.33697844135
tp273
a(F-0.270276010289
F5.80420941939
tp274
a(F-0.5310948668
F5.53164223529
tp275
a(F0.189830917057
F3.52438221582
tp276
a(F-0.215577541944
F4.41904099584
tp277
a(F-0.940227625089
F4.12711521575
tp278
a(F-2.377150441
F5.11978266223
tp279
a(F-0.634196480803
F5.36685327458
tp280
a(F0.75416867491
F4.38210527603
tp281
a(F-0.376246641038
F5.48474728656
tp282
a(F0.216274191562
F6.4058456592
tp283
a(F0.284610063437
F4.21962448271
tp284
a(F-1.25111742418
F4.45484237117
tp285
a(F-0.0820643107157
F4.52731324319
tp286
a(F-0.12943048921
F4.91167713629
tp287
a(F-1.6728436831
F1.10988482343
tp288
a(F-0.225594446995
F5.64751569961
tp289
a(F-3.02767577498
F5.1271601788
tp290
a(F-1.99475983554
F5.45989395953
tp291
a(F-1.19374938048
F5.26480824581
tp292
a(F0.489435434506
F5.15412933384
tp293
a(F-1.91225142708
F6.00988340188
tp294
a(F-1.31369830855
F5.40663977504
tp295
a(F-0.535972461431
F4.46989945818
tp296
a(F-1.18844060695
F4.96343259636
tp297
a(F-1.49718327256
F1.55405123729
tp298
a(F-2.02389480066
F2.1748266954
tp299
a(F-1.20979254083
F2.46690614748
tp300
a(F-0.75339720478
F1.55425125362
tp301
a(F-1.70601624449
F1.87025766752
tp302
a(F-1.71313685696
F2.35750428411
tp303
a(F-2.26329096374
F1.88519173801
tp304
a(F-2.54234056222
F1.47158406613
tp305
a(F-1.43164913161
F1.85714021392
tp306
a(F-1.52429927244
F1.69687799383
tp307
a(F-1.94376516862
F2.05743620654
tp308
a(F-0.849985223192
F1.20752870175
tp309
a(F-2.62567904155
F1.78066900918
tp310
a(F-1.91670731989
F1.22094521996
tp311
a(F-1.63073951414
F2.09444491119
tp312
a(F-1.54293187257
F1.86114241305
tp313
a(F-1.78434651864
F2.29488634652
tp314
a(F-1.35660549092
F1.12183394638
tp315
a(F-1.63381855354
F1.59956409254
tp316
a(F-1.78709485069
F1.74221784846
tp317
a(F-1.94955681791
F2.10093414857
tp318
a(F-1.65026633218
F1.9420810756
tp319
a(F-1.29787386369
F1.2641377241
tp320
a(F-1.02989325057
F2.11486209283
tp321
a(F-1.96312797941
F1.86906390155
tp322
a(F-1.82663722734
F1.98149070731
tp323
a(F-1.60845815177
F1.73938321558
tp324
a(F-1.50199181614
F2.08216928006
tp325
a(F-1.58122615177
F1.4698482543
tp326
a(F-0.210259310811
F1.00101888263
tp327
a(F-1.50631510196
F1.93799285956
tp328
a(F-1.44998309973
F2.0879926053
tp329
a(F-1.22353656784
F2.4268499866
tp330
a(F-1.15405420219
F1.88018540042
tp331
a(F-1.58026230043
F1.53506927533
tp332
a(F-1.4645534418
F1.4263914408
tp333
a(F-1.31994120467
F1.95947215022
tp334
a(F-1.79252135658
F2.11015941872
tp335
a.