(lp0
(F1.73965011608
F-1.4992447369
tp1
a(F1.14303401507
F-2.82060287525
tp2
a(F2.02523425624
F-1.63663574307
tp3
a(F3.41618366869
F-1.42908022431
tp4
a(F4.34521681527
F-2.11951299524
tp5
a(F3.21629236664
F-2.89111209252
tp6
a(F2.97278237378
F-2.57856055654
tp7
a(F3.40636897447
F-1.57577987138
tp8
a(F1.5974543571
F-1.16645171218
tp9
a(F2.24862608108
F-3.57240967433
tp10
a(F3.79661060093
F-1.68474858247
tp11
a(F1.66334184614
F-1.91748709128
tp12
a(F1.56466702206
F-2.17239053499
tp13
a(F3.21353564974
F-1.55462469173
tp14
a(F1.97831141539
F-1.35411585325
tp15
a(F4.33381847518
F-1.86819530648
tp16
a(F1.33585169886
F-1.70651101276
tp17
a(F2.31603856245
F-2.33352070288
tp18
a(F3.45722160325
F-1.59880983617
tp19
a(F1.27243547944
F-1.74117290743
tp20
a(F2.36775144331
F-1.59428750923
tp21
a(F0.80050900753
F-1.50746159893
tp22
a(F3.30302141749
F-1.42878551779
tp23
a(F2.53710379643
F-0.863503814077
tp24
a(F0.920230680856
F-2.68209963478
tp25
a(F3.11607299904
F-3.60694638517
tp26
a(F1.23454724057
F-1.72389864373
tp27
a(F3.31021625309
F-2.88700329846
tp28
a(F0.511251199954
F-2.08949606355
tp29
a(F4.14505179665
F-1.67435212777
tp30
a(F3.53065584919
F-1.78953486295
tp31
a(F1.95874068051
F-1.78047469256
tp32
a(F1.78485245277
F-2.28638983051
tp33
a(F1.79887065148
F-1.79540514744
tp34
a(F2.30769020701
F-1.46893325837
tp35
a(F1.04838868994
F-2.18923139276
tp36
a(F1.54427513747
F-1.34469690712
tp37
a(F1.81210680284
F-2.12211063007
tp38
a(F-0.35004530664
F-2.78040354719
tp39
a(F1.63999773281
F-1.89921133814
tp40
a(F2.77083819744
F-1.5950988726
tp41
a(F0.863440357591
F-1.32994387772
tp42
a(F2.66733423099
F-1.61784788785
tp43
a(F2.22925085805
F-2.08111369188
tp44
a(F2.15448713162
F-2.84368814883
tp45
a(F0.741225908345
F-0.784413806276
tp46
a(F2.09237302103
F-1.77046472903
tp47
a(F2.96466863255
F-2.40648329575
tp48
a(F2.747161714
F-1.3753506021
tp49
a(F2.36499472641
F-0.961100771558
tp50
a(F2.99976300727
F-4.03975165181
tp51
a(F1.92348989632
F-1.01955049504
tp52
a(F1.44106443877
F-1.68287457053
tp53
a(F3.81360057955
F-1.55995816188
tp54
a(F3.78182990606
F-2.83530677305
tp55
a(F2.75725012478
F-1.84700493416
tp56
a(F2.43780333447
F-1.52663040581
tp57
a(F3.76476172269
F-1.40425592244
tp58
a(F0.783169062715
F-1.12004989282
tp59
a(F1.65352715193
F-1.08174208859
tp60
a(F1.49467378444
F-1.70211014987
tp61
a(F1.5907483011
F-2.52080981819
tp62
a(F1.48173090084
F-2.41229294611
tp63
a(F2.04284987275
F-1.35929437904
tp64
a(F0.855195623429
F-1.99240105442
tp65
a(F4.85303926043
F-2.53641332991
tp66
a(F0.694787936844
F-1.74366050849
tp67
a(F2.16226850272
F-1.42715396667
tp68
a(F2.12383087559
F-1.11914277382
tp69
a(F0.664450365113
F-3.2402747144
tp70
a(F5.18591771394
F-2.52520892475
tp71
a(F3.60004300011
F-2.66489989658
tp72
a(F2.37492672772
F-2.15334650634
tp73
a(F4.81204042824
F-2.33895124768
tp74
a(F1.70723425352
F-1.71123346406
tp75
a(F2.09280314707
F-1.83562459982
tp76
a(F2.36247262371
F-1.91583047049
tp77
a(F1.48452672011
F-1.42103640957
tp78
a(F3.15574235075
F-2.55946189211
tp79
a(F2.06068055227
F-1.59179063541
tp80
a(F2.71222374874
F-2.3273399762
tp81
a(F3.31737198632
F-2.18197109754
tp82
a(F2.02058107452
F-0.93557110855
tp83
a(F-0.475804541899
F-1.68108606891
tp84
a(F2.24287803308
F-1.20656424018
tp85
a(F2.23857677267
F-3.28026086544
tp86
a(F2.75388732119
F-1.78585281958
tp87
a(F2.30370176554
F-1.42217005134
tp88
a(F1.09203866265
F-2.2837240487
tp89
a(F1.81965355974
F-1.52727332962
tp90
a(F2.13565934172
F-1.82682277087
tp91
a(F3.10747047822
F-1.58872133083
tp92
a(F1.00405247069
F-2.18342357455
tp93
a(F3.86320193257
F-2.77119183362
tp94
a(F0.788788072908
F-1.81267646435
tp95
a(F1.63004618031
F-1.78353113427
tp96
a(F4.18657851081
F-1.06113613588
tp97
a(F2.96165775026
F-1.07048188172
tp98
a(F2.11065337778
F-1.97840176138
tp99
a(F3.30931689864
F-0.96987363
tp100
a(F6.46640293853
F-1.9056476105
tp101
a(F3.76431204547
F-1.64850146287
tp102
a(F6.07842924939
F-2.13566286855
tp103
a(F3.85332858481
F-1.78898067891
tp104
a(F5.12671672973
F-1.5945655896
tp105
a(F5.0776041563
F-2.52648061367
tp106
a(F5.71473813039
F-2.55705877673
tp107
a(F3.57282775241
F-1.11388713437
tp108
a(F5.57095872553
F-1.50288722886
tp109
a(F4.44733264768
F-1.42542408234
tp110
a(F4.09316295514
F-1.28797690584
tp111
a(F3.9695017183
F-1.07133821889
tp112
a(F4.67086133081
F-0.713165785731
tp113
a(F4.79551967802
F-3.01153955321
tp114
a(F4.82854162727
F-1.37989977916
tp115
a(F4.01493866919
F-0.692297519304
tp116
a(F4.08264441831
F-0.727190731063
tp117
a(F5.66083551695
F-2.53384171527
tp118
a(F4.3672314481
F-0.929138651296
tp119
a(F0.775569517615
F-2.33187817759
tp120
a(F3.0974211698
F-0.231546417246
tp121
a(F3.73787884512
F-0.972515452602
tp122
a(F2.30037806431
F-1.0077866526
tp123
a(F4.4481537974
F-1.56058385502
tp124
a(F5.34639382967
F-1.00554919031
tp125
a(F3.31121336345
F-1.19967944367
tp126
a(F3.18530374049
F-1.52683462248
tp127
a(F5.10738060906
F-1.65066660398
tp128
a(F3.25355692275
F-1.04719981586
tp129
a(F1.54001297942
F-1.3093398441
tp130
a(F4.53304503698
F-1.699976438
tp131
a(F5.02297814907
F-1.51172069628
tp132
a(F4.02827257647
F-1.32178003436
tp133
a(F5.29442678342
F-1.79525990434
tp134
a(F4.38044804828
F-1.85352873962
tp135
a(F3.66855034776
F-1.27645719575
tp136
a(F2.02494098849
F-2.66750758996
tp137
a(F5.23149152312
F-1.14032146562
tp138
a(F6.36710247657
F-0.261980578867
tp139
a(F3.6372098003
F-2.76060938522
tp140
a(F1.67958887979
F-1.88912752971
tp141
a(F4.47622929718
F-1.21328293589
tp142
a(F4.04043341272
F-1.09667074372
tp143
a(F4.94039394916
F-1.3623229042
tp144
a(F3.94744798309
F-1.36123016427
tp145
a(F5.15043231554
F0.399832436439
tp146
a(F4.8172410431
F-1.81204065118
tp147
a(F3.76880881772
F-0.950756005927
tp148
a(F3.95593319682
F-0.616411172377
tp149
a(F4.29193983971
F-1.31734774025
tp150
a(F3.45141490169
F-2.39530228418
tp151
a(F2.57722282536
F-1.41545190555
tp152
a(F5.1818901701
F-0.448846895811
tp153
a(F4.15083894702
F-2.08642625859
tp154
a(F3.30824158353
F-1.42854129547
tp155
a(F5.66470665133
F-2.69706115315
tp156
a(F5.68885236318
F-1.39265430862
tp157
a(F4.20327522168
F-2.08910897176
tp158
a(F4.2171565621
F-0.856077437883
tp159
a(F4.11705450161
F-1.79016880336
tp160
a(F3.94693965232
F-1.60567373604
tp161
a(F5.15211371734
F-0.988175383191
tp162
a(F4.56055355243
F-1.71576752538
tp163
a(F4.59038865874
F-0.375744541391
tp164
a(F5.73655725139
F-1.40395128862
tp165
a(F3.93661662733
F-1.99257137079
tp166
a(F4.84168002271
F-1.51704635862
tp167
a(F4.29049305212
F-1.54302041417
tp168
a(F3.21347699619
F-0.606243252799
tp169
a(F5.59399001992
F-1.22884353339
tp170
a(F5.8754684115
F-2.85744842343
tp171
a(F5.72912780158
F-1.84790903291
tp172
a(F4.67680489065
F-1.52451927746
tp173
a(F4.51718902701
F-1.00895289058
tp174
a(F5.28600022325
F-2.29763808138
tp175
a(F3.60201766966
F-1.30409839099
tp176
a(F6.44953026701
F-2.26793040515
tp177
a(F5.27458233197
F-2.43967111281
tp178
a(F4.86985327841
F-2.68365385391
tp179
a(F2.63654111668
F-0.819336114784
tp180
a(F3.57241717755
F-1.21482209098
tp181
a(F0.54472478155
F-1.43139852361
tp182
a(F6.6426568595
F-2.03874503066
tp183
a(F3.40683820288
F0.248602191352
tp184
a(F7.31811115362
F-3.36317639543
tp185
a(F5.73094606167
F-0.981063750897
tp186
a(F5.59834993388
F-0.865703005402
tp187
a(F4.06150958874
F-2.23565251087
tp188
a(F6.73765606105
F-2.47799207041
tp189
a(F4.21854469614
F-1.10189046428
tp190
a(F4.57609674346
F-1.28789057441
tp191
a(F5.59224996457
F-2.36472862364
tp192
a(F1.23543290919
F-0.973651697398
tp193
a(F5.10871008955
F-1.6932862279
tp194
a(F4.54706323568
F-1.54012610553
tp195
a(F5.67053290406
F-3.0598013524
tp196
a(F5.1417320388
F-1.3780285617
tp197
a(F4.96506754298
F-1.71727469701
tp198
a(F3.98279652321
F-1.10494216217
tp199
a(F6.03436088135
F-1.70322068155
tp200
a(F4.67340298469
F-1.40002830488
tp201
a(F6.30668931897
F-1.37705812719
tp202
a(F5.0048346506
F-0.664233214433
tp203
a(F6.98671859008
F-2.11732902088
tp204
a(F5.24480587921
F-1.10165056753
tp205
a(F6.03848618111
F-1.5705575572
tp206
a(F6.0068523659
F-0.902278494843
tp207
a(F5.39188943411
F-0.144307086905
tp208
a(F6.13387640633
F-1.32144089149
tp209
a(F4.65791844721
F-0.367450360534
tp210
a(F5.88776610604
F-0.0523228489115
tp211
a(F4.72167485722
F0.475366238388
tp212
a(F6.27970868548
F0.455159551252
tp213
a(F7.14373414629
F-1.51692299149
tp214
a(F4.96772650396
F-0.964522280308
tp215
a(F4.66755718077
F-0.177742549963
tp216
a(F5.11770363405
F-0.914701795957
tp217
a(F4.85593283562
F-0.035633605832
tp218
a(F6.56286847886
F-1.23369767392
tp219
a(F5.15311082771
F0.171467530915
tp220
a(F3.37999442767
F0.699390558532
tp221
a(F4.69432275124
F-1.27037310204
tp222
a(F5.55439887295
F-0.283679417163
tp223
a(F4.29532219449
F0.300566357989
tp224
a(F6.14181418691
F-1.28665063523
tp225
a(F5.58701024734
F-1.21724378887
tp226
a(F5.23686809864
F-0.0289807445345
tp227
a(F5.63625967906
F0.189093590912
tp228
a(F4.73000366147
F-0.321070249277
tp229
a(F4.59736843132
F0.0228806898692
tp230
a(F5.41153837372
F-1.1726391433
tp231
a(F5.76887535803
F-1.0540793558
tp232
a(F6.49215184745
F-0.774786082937
tp233
a(F6.73916150219
F-0.540419193517
tp234
a(F4.51644608203
F1.00386013781
tp235
a(F6.4819070272
F-0.832151859098
tp236
a(F5.9170733304
F-0.668605391221
tp237
a(F5.4568775687
F0.872776170473
tp238
a(F5.6879921111
F-0.52409437566
tp239
a(F5.40534064849
F-0.255259614993
tp240
a(F2.54658612052
F-1.21777745448
tp241
a(F4.51578134178
F-0.877056827633
tp242
a(F6.37855947022
F-2.18735044166
tp243
a(F4.32805087599
F0.329397226337
tp244
a(F6.35048397044
F-1.11299722656
tp245
a(F5.16947516846
F-0.828456567891
tp246
a(F4.84349828279
F0.185041029783
tp247
a(F5.54026336714
F0.265517318632
tp248
a(F5.38858528407
F-0.638113371564
tp249
a(F6.89169983734
F-2.10852635084
tp250
a(F7.26240983129
F-1.37562030008
tp251
a(F5.75335171818
F-1.01484466052
tp252
a(F5.55324535311
F-0.730503342292
tp253
a(F4.67752828445
F-0.249610789943
tp254
a(F5.38889810301
F-0.157605837674
tp255
a(F6.21456414142
F-0.460014839227
tp256
a(F3.82478385662
F-0.523270778834
tp257
a(F5.1954391404
F-0.087136349896
tp258
a(F5.07306828168
F-0.173063832644
tp259
a(F5.17592705907
F-0.667282373302
tp260
a(F6.67043909152
F-1.1272195474
tp261
a(F4.58448420127
F0.737761590509
tp262
a(F5.26912755172
F-0.542713246742
tp263
a(F6.25239568186
F-0.194474278207
tp264
a(F5.19235005337
F1.17796077996
tp265
a(F5.12650166671
F0.922584060651
tp266
a(F5.34475153024
F0.0442869360157
tp267
a(F6.08818529005
F-0.676896104587
tp268
a(F0.594091520367
F-2.61529685001
tp269
a(F3.62008296339
F-0.635348790948
tp270
a(F5.63113726893
F-1.35125672725
tp271
a(F4.4083475874
F-0.570071692435
tp272
a(F5.75073185956
F-1.25544101368
tp273
a(F6.52763724585
F-0.270276010289
tp274
a(F3.66344748881
F-0.5310948668
tp275
a(F5.20433492898
F0.189830917057
tp276
a(F5.03773929275
F-0.215577541944
tp277
a(F5.24197095758
F-0.940227625089
tp278
a(F5.92948833204
F-2.377150441
tp279
a(F6.22793715107
F-0.634196480803
tp280
a(F2.40296312513
F0.75416867491
tp281
a(F6.08419684858
F-0.376246641038
tp282
a(F5.01758202237
F0.216274191562
tp283
a(F6.71116420715
F0.284610063437
tp284
a(F4.36013436842
F-1.25111742418
tp285
a(F4.08350467039
F-0.0820643107157
tp286
a(F5.16323834086
F-0.12943048921
tp287
a(F-0.661437204783
F-1.6728436831
tp288
a(F5.00706348554
F-0.225594446995
tp289
a(F6.34616315884
F-3.02767577498
tp290
a(F7.03465809249
F-1.99475983554
tp291
a(F6.46808434033
F-1.19374938048
tp292
a(F4.97777581238
F0.489435434506
tp293
a(F4.42870036962
F-1.91225142708
tp294
a(F5.22973191659
F-1.31369830855
tp295
a(F4.81432791673
F-0.535972461431
tp296
a(F6.40745611971
F-1.18844060695
tp297
a(F1.40421632287
F-1.49718327256
tp298
a(F0.292756946626
F-2.02389480066
tp299
a(F1.53668927819
F-1.20979254083
tp300
a(F1.17083579828
F-0.75339720478
tp301
a(F1.52922072603
F-1.70601624449
tp302
a(F-0.150171209635
F-1.71313685696
tp303
a(F-0.0169162069586
F-2.26329096374
tp304
a(F1.16753164823
F-2.54234056222
tp305
a(F1.76819484427
F-1.43164913161
tp306
a(F0.859970022487
F-1.52429927244
tp307
a(F1.15125724293
F-1.94376516862
tp308
a(F0.993058840101
F-0.849985223192
tp309
a(F0.804526775778
F-2.62567904155
tp310
a(F1.19938639182
F-1.91670731989
tp311
a(F1.26695723777
F-1.63073951414
tp312
a(F2.97037757818
F-1.54293187257
tp313
a(F1.77276982125
F-1.78434651864
tp314
a(F1.28531188902
F-1.35660549092
tp315
a(F2.09778869891
F-1.63381855354
tp316
a(F0.616698554068
F-1.78709485069
tp317
a(F1.12258152181
F-1.94955681791
tp318
a(F2.79646979926
F-1.65026633218
tp319
a(F2.28428744013
F-1.29787386369
tp320
a(F-0.237187662884
F-1.02989325057
tp321
a(F1.65992038899
F-1.96312797941
tp322
a(F1.61045589426
F-1.82663722734
tp323
a(F2.11927544979
F-1.60845815177
tp324
a(F1.01890941518
F-1.50199181614
tp325
a(F0.739450660866
F-1.58122615177
tp326
a(F0.754059305319
F-0.210259310811
tp327
a(F1.27249413299
F-1.50631510196
tp328
a(F0.794233077565
F-1.44998309973
tp329
a(F2.16557265277
F-1.22353656784
tp330
a(F1.25069065294
F-1.15405420219
tp331
a(F0.763784064087
F-1.58026230043
tp332
a(F1.64633231633
F-1.4645534418
tp333
a(F-0.677404069967
F-1.31994120467
tp334
a(F1.81638851206
F-1.79252135658
tp335
a.