(lp0
(F2.65687233272
F2.589523611
tp1
a(F2.02292232492
F2.251010545
tp2
a(F1.9275479436
F2.20109175191
tp3
a(F3.86392923054
F3.63350392803
tp4
a(F3.57051046861
F3.58600407467
tp5
a(F4.40023622424
F4.1381322508
tp6
a(F3.05452969292
F2.81646354721
tp7
a(F4.71356885423
F4.1620316136
tp8
a(F4.22244519768
F4.09412166276
tp9
a(F4.33156163876
F4.58875891733
tp10
a(F2.2788632476
F2.2966742632
tp11
a(F2.75179418601
F2.78517240863
tp12
a(F4.00962739709
F4.07507316651
tp13
a(F2.14388206937
F2.24085906806
tp14
a(F3.94297116364
F3.71623628618
tp15
a(F3.54063408711
F3.25270244691
tp16
a(F3.17749876203
F3.09317670681
tp17
a(F3.37495459952
F3.4023044249
tp18
a(F3.79722332203
F3.28649477846
tp19
a(F4.15840090091
F4.28490209803
tp20
a(F4.31673738149
F4.2180069316
tp21
a(F2.86481584607
F2.85687211162
tp22
a(F3.66303098523
F3.57238320495
tp23
a(F3.6203565585
F3.5085218434
tp24
a(F1.8913233709
F2.09766884002
tp25
a(F3.42690694432
F3.31573845301
tp26
a(F3.44755943113
F3.33634146443
tp27
a(F2.929359428
F2.82734942173
tp28
a(F4.57704760759
F4.02724699261
tp29
a(F3.89721227339
F3.55964728753
tp30
a(F3.46615256569
F2.96472121138
tp31
a(F3.48961610954
F3.38678323024
tp32
a(F3.72823013689
F3.60685384454
tp33
a(F4.23540498501
F3.85909850122
tp34
a(F4.65916395987
F4.33233170573
tp35
a(F0.515723130463
F1.0426391765
tp36
a(F4.56782676357
F3.85517012733
tp37
a(F3.30428218192
F3.31093425618
tp38
a(F4.16292655788
F3.95578670697
tp39
a(F4.78044451779
F4.14689799776
tp40
a(F4.62652612737
F4.00696613298
tp41
a(F3.0887038574
F3.25020242907
tp42
a(F3.38842282317
F3.254404061
tp43
a(F3.80769648824
F3.32477680073
tp44
a(F3.3750937608
F3.53083699468
tp45
a(F3.88234972237
F3.5347874875
tp46
a(F2.00438474222
F2.46409055405
tp47
a(F3.11226375686
F2.92875528072
tp48
a(F4.15494717504
F3.71265284858
tp49
a(F3.2374335984
F3.14640791688
tp50
a(F3.49854089896
F3.28039569266
tp51
a(F3.87838797069
F3.53072381323
tp52
a(F4.4770456614
F4.15620637642
tp53
a(F4.24851994908
F3.7698355309
tp54
a(F3.57546202759
F3.48383700845
tp55
a(F2.22383833577
F2.43376770097
tp56
a(F2.46673720716
F2.63967545345
tp57
a(F1.25616608548
F1.7891115282
tp58
a(F2.61152942438
F2.77916253821
tp59
a(F3.31252258577
F3.28820124209
tp60
a(F3.46548722261
F3.54712329921
tp61
a(F4.03856342314
F3.8602654413
tp62
a(F4.20556474219
F3.64356317517
tp63
a(F5.52075461243
F4.95180205968
tp64
a(F4.17819197803
F3.94611374632
tp65
a(F3.42976513593
F3.18141755184
tp66
a(F3.82066315621
F3.67204882918
tp67
a(F4.19913914188
F3.92212748668
tp68
a(F1.3689526167
F1.62067572335
tp69
a(F2.88676506555
F2.79966727347
tp70
a(F3.80994764266
F3.75219882917
tp71
a(F4.7505382517
F4.31849679867
tp72
a(F2.48634403367
F2.47641222159
tp73
a(F2.50699713858
F2.54628722433
tp74
a(F2.4179366311
F2.45246950333
tp75
a(F4.37188068838
F3.86671512439
tp76
a(F3.74436978034
F3.51682312697
tp77
a(F2.39938580877
F2.46019089664
tp78
a(F2.65901506477
F2.77011354178
tp79
a(F1.69492917075
F1.94768785348
tp80
a(F3.9772530452
F3.84592379266
tp81
a(F3.27203338219
F3.0942604581
tp82
a(F4.65294300855
F3.95192204215
tp83
a(F4.53800017241
F4.25059111042
tp84
a(F3.73942482812
F3.48307270169
tp85
a(F3.88156877791
F3.46267922841
tp86
a(F3.14303296357
F2.85951700256
tp87
a(F4.24362730944
F3.81832006186
tp88
a(F4.62970633768
F4.36615456632
tp89
a(F3.83299657069
F3.75397797152
tp90
a(F2.12071129732
F2.27227296712
tp91
a(F3.01924447066
F2.94572434754
tp92
a(F4.25991514227
F3.85424805189
tp93
a(F4.34552386001
F4.03285436342
tp94
a(F3.41657692612
F3.40540739124
tp95
a(F4.17973749596
F3.98206648568
tp96
a(F4.47942678938
F4.21185092392
tp97
a(F2.51795810234
F2.60966235861
tp98
a(F4.4061103654
F4.05592271142
tp99
a(F3.98132496043
F3.75677309986
tp100
a(F5.57753207746
F4.6373456014
tp101
a(F1.73633253457
F1.93065784999
tp102
a(F3.72007227125
F3.65297286159
tp103
a(F4.41311878447
F3.97768429326
tp104
a(F2.14481285384
F2.35789481503
tp105
a(F2.96172310778
F2.69086272161
tp106
a(F2.29962334101
F2.32436349821
tp107
a(F2.77723540756
F2.73034578444
tp108
a(F4.01808313668
F3.49610714444
tp109
a(F2.55063279423
F2.64850827904
tp110
a(F3.4294453623
F3.32970787155
tp111
a(F4.8525371037
F4.28913698253
tp112
a(F1.67344996667
F1.74551977709
tp113
a(F2.36259907285
F2.44999547901
tp114
a(F4.69223855134
F4.27216612602
tp115
a(F5.28895449179
F4.86915074296
tp116
a(F3.83515788416
F3.71058863734
tp117
a(F5.01503285806
F4.58033184093
tp118
a(F2.62156819168
F2.69391356371
tp119
a(F6.96554167245
F6.03649826463
tp120
a(F4.13429527228
F3.62013324932
tp121
a(F4.32620958766
F3.63140660542
tp122
a(F5.82439605852
F5.0438991207
tp123
a(F4.90118495467
F4.10285702652
tp124
a(F0.748536677648
F1.24339599193
tp125
a(F5.5549143367
F4.84891762474
tp126
a(F5.34314087527
F4.34286022321
tp127
a(F4.46827613693
F4.00337314661
tp128
a(F5.91981527566
F5.19509713075
tp129
a(F4.61064098108
F4.09194318222
tp130
a(F6.16859617923
F5.88708631176
tp131
a(F4.90739798376
F4.53411622435
tp132
a(F5.68691437457
F5.0253038703
tp133
a(F5.34557509201
F4.96398858523
tp134
a(F5.39708873729
F4.67140342042
tp135
a(F1.1108800708
F1.46422404064
tp136
a(F6.11754434189
F5.04745196905
tp137
a(F3.82400736253
F3.66213431851
tp138
a(F6.57986067805
F5.96370079528
tp139
a(F2.993339631
F3.12325956469
tp140
a(F4.76442743942
F4.36431848888
tp141
a(F5.72179986379
F5.08037532455
tp142
a(F4.8836968966
F4.50006494425
tp143
a(F3.59871674348
F3.3176839885
tp144
a(F5.35679224135
F4.64439175367
tp145
a(F2.93280614757
F2.90586416234
tp146
a(F1.75283822691
F2.26717301829
tp147
a(F6.54060329314
F5.55015311894
tp148
a(F5.82502364612
F5.57578913502
tp149
a(F4.89191623073
F4.25971119447
tp150
a(F5.42085558179
F4.75194623679
tp151
a(F6.66535611625
F5.72659685349
tp152
a(F3.43637437899
F3.28093679863
tp153
a(F4.05191953244
F3.85940373007
tp154
a(F4.7113906459
F4.26491209073
tp155
a(F5.4439907506
F4.86372707322
tp156
a(F2.91933163458
F2.86781356673
tp157
a(F1.67985509666
F2.40220339766
tp158
a(F5.21108504606
F4.82062975391
tp159
a(F3.55918957502
F3.51000127657
tp160
a(F4.40170862019
F3.95026182024
tp161
a(F4.14063994874
F3.66815616404
tp162
a(F6.65486840361
F5.68603839961
tp163
a(F5.13196521326
F4.54887402277
tp164
a(F4.68935811193
F4.15031658403
tp165
a(F6.09552281536
F5.23641157701
tp166
a(F5.31035742581
F4.61551125083
tp167
a(F6.37437962591
F5.77193379411
tp168
a(F2.97912749176
F2.81003327038
tp169
a(F6.17051508155
F5.60172462975
tp170
a(F4.10667524962
F4.24649348377
tp171
a(F4.81577349988
F4.50584145069
tp172
a(F4.40062138399
F4.07315756616
tp173
a(F3.88981657517
F3.7711519613
tp174
a(F5.17525465811
F4.81288743196
tp175
a(F5.15558358233
F4.40073620614
tp176
a(F3.96374022582
F3.63876427381
tp177
a(F6.19732944991
F5.27308428465
tp178
a(F4.59360627376
F4.2606607605
tp179
a(F1.41513637301
F1.62149270191
tp180
a(F4.69099235893
F4.22739748757
tp181
a(F5.94188545763
F5.10431092549
tp182
a(F4.94474871291
F4.73413239064
tp183
a(F2.80758691275
F2.88229298364
tp184
a(F4.83096251842
F4.42873820062
tp185
a(F5.55694657214
F4.90073070081
tp186
a(F3.66719876498
F3.5038702196
tp187
a(F5.01979646609
F4.61341665067
tp188
a(F4.97402521566
F4.19055960386
tp189
a(F4.81795421422
F4.60760738533
tp190
a(F1.97473511929
F2.08505685828
tp191
a(F4.32564656771
F4.01790993173
tp192
a(F4.66843920486
F4.36445456206
tp193
a(F4.35939235641
F3.88761613708
tp194
a(F5.34660606468
F4.70899135316
tp195
a(F4.9070694784
F4.1578997684
tp196
a(F6.03561413059
F5.26921321259
tp197
a(F5.04633127468
F4.34220562162
tp198
a(F5.07174423948
F4.65295232711
tp199
a(F6.76102198955
F5.82569185402
tp200
a(F2.37839320225
F2.56802527543
tp201
a(F1.63118234646
F1.85974782821
tp202
a(F3.7299718991
F3.60996556982
tp203
a(F6.06293851302
F5.46505920663
tp204
a(F5.09784305414
F4.57220847211
tp205
a(F5.59366872823
F5.36180483187
tp206
a(F4.54687003383
F4.26070263391
tp207
a(F4.18598164895
F4.40332148127
tp208
a(F4.95942496056
F4.74414513868
tp209
a(F5.37604522064
F4.67737601176
tp210
a(F3.75170549098
F3.59239341028
tp211
a(F4.36671439422
F4.05423192021
tp212
a(F1.49851798074
F2.47850529611
tp213
a(F6.04764572459
F5.43516231801
tp214
a(F5.24521310759
F4.59415728356
tp215
a(F5.43043020174
F4.69098935586
tp216
a(F5.23966461283
F4.98088065007
tp217
a(F5.8515841347
F5.33630975512
tp218
a(F5.73695077511
F5.16626008235
tp219
a(F4.7534755428
F4.52176484635
tp220
a(F4.06389439358
F3.79348392186
tp221
a(F2.86749784429
F2.8563050252
tp222
a(F5.36331712877
F4.8301524136
tp223
a(F2.11340738985
F2.35557448328
tp224
a(F0.728154407684
F1.26198815299
tp225
a(F4.48408587287
F4.31419913771
tp226
a(F5.34957126389
F4.80835690948
tp227
a(F4.47575653868
F4.1265252274
tp228
a(F5.31613630136
F4.80702947168
tp229
a(F5.46040320931
F4.8925209668
tp230
a(F6.14639660479
F5.53289095018
tp231
a(F7.69272699806
F6.79364182977
tp232
a(F3.41326735267
F3.41713423374
tp233
a(F5.02761233477
F4.54444175429
tp234
a(F5.3909338812
F4.7691717746
tp235
a(F1.55881052298
F2.39072963996
tp236
a(F5.87250154513
F5.11778225398
tp237
a(F4.9184984024
F5.34323680507
tp238
a(F6.1907275034
F5.3638382974
tp239
a(F5.48176529874
F4.98659811625
tp240
a(F4.62267808806
F4.19133558014
tp241
a(F5.68589770669
F5.34026507785
tp242
a(F5.06592235088
F4.8299110352
tp243
a(F5.82867960762
F5.19548115015
tp244
a(F6.55423601629
F5.75721584636
tp245
a(F6.64654482839
F6.0151398483
tp246
a(F1.78219825139
F1.89097761928
tp247
a(F4.95829856386
F4.63680859764
tp248
a(F4.77889333755
F4.49167085776
tp249
a(F5.40016234388
F4.91886143932
tp250
a(F5.37259730072
F5.31478943055
tp251
a(F6.78067324469
F6.0704230581
tp252
a(F4.42428605523
F4.05204058444
tp253
a(F6.21088959125
F5.59460706564
tp254
a(F4.6715145961
F4.6124802759
tp255
a(F5.9746624046
F5.64959135281
tp256
a(F3.45358968138
F3.36295681011
tp257
a(F1.44117121639
F1.86447497567
tp258
a(F5.41104266439
F4.81838349083
tp259
a(F6.72667302592
F5.9083609632
tp260
a(F4.39123920956
F4.23254640242
tp261
a(F5.76723534937
F5.23262419375
tp262
a(F5.8305003622
F5.44902029388
tp263
a(F5.26984516306
F4.74833055649
tp264
a(F4.64225615905
F4.33762302772
tp265
a(F5.67542731524
F5.20075988593
tp266
a(F6.00791132918
F5.44498074274
tp267
a(F4.78570029122
F4.24605187641
tp268
a(F2.08758084118
F2.47180674499
tp269
a(F4.95607787605
F4.53215674528
tp270
a(F6.22635990846
F5.42325659761
tp271
a(F6.76915195073
F6.1967463442
tp272
a(F5.40051735815
F4.78640439429
tp273
a(F5.54805458543
F5.0214499249
tp274
a(F4.11408285848
F3.90429655183
tp275
a(F7.24287609305
F6.32571620817
tp276
a(F4.90002041026
F4.51312153635
tp277
a(F4.61153678256
F4.37679587008
tp278
a(F6.75052636302
F6.32096243901
tp279
a(F2.31163160953
F2.26409180512
tp280
a(F7.11345417157
F6.19038465746
tp281
a(F5.84977904308
F5.20617368032
tp282
a(F5.07854088015
F4.83364497974
tp283
a(F7.13943570015
F6.51051227036
tp284
a(F5.38700297852
F4.74860278829
tp285
a(F4.44843649631
F4.13672064348
tp286
a(F5.72392477798
F5.16412520808
tp287
a(F5.14640619218
F4.70704559331
tp288
a(F5.73234343105
F5.04435541678
tp289
a(F4.43873606714
F4.4390973565
tp290
a(F1.64697269963
F1.83960898424
tp291
a(F5.19483351265
F4.87802003509
tp292
a(F6.60634947388
F5.9809573773
tp293
a(F7.27720103094
F6.1414195365
tp294
a(F3.95402539915
F3.75659136436
tp295
a(F6.34192078529
F5.6060910644
tp296
a(F7.11798877675
F6.20722850094
tp297
a(F4.68172259573
F4.21906924093
tp298
a(F6.20208096925
F5.60191034395
tp299
a(F4.56833860381
F4.44413687091
tp300
a(F5.01684337288
F4.68290487333
tp301
a(F1.75872868728
F2.0373961777
tp302
a(F7.00679947816
F6.11124735565
tp303
a(F5.61637301553
F4.98489757343
tp304
a(F7.36902302239
F6.319744766
tp305
a(F8.64458277995
F7.68790329437
tp306
a(F5.79632171035
F5.03862992902
tp307
a(F6.11639389909
F5.61852547194
tp308
a(F3.96214759103
F3.90846737363
tp309
a(F5.10846690796
F4.66002820063
tp310
a(F5.78765131567
F5.32271908907
tp311
a(F4.2482075474
F4.07218173988
tp312
a(F1.44578581434
F1.75140634717
tp313
a(F4.09966660199
F4.12036312299
tp314
a(F5.26176097463
F4.82283425302
tp315
a(F3.92165206668
F3.9214382642
tp316
a(F7.12332253264
F6.06173776064
tp317
a(F4.91614844854
F4.87004599723
tp318
a(F4.99459460381
F4.65005905625
tp319
a(F4.82981074998
F4.54174155027
tp320
a(F4.50664909583
F4.05403344445
tp321
a(F4.15209280734
F4.08132738696
tp322
a(F4.61285408344
F4.17955080494
tp323
a(F2.02786712114
F2.09976236411
tp324
a(F5.16685883341
F4.65882872278
tp325
a(F5.30822989053
F4.73839033902
tp326
a(F7.25373284624
F6.27789254559
tp327
a(F5.11154100279
F4.73502704928
tp328
a(F4.61867832123
F4.41263503779
tp329
a(F4.45772980543
F4.32407143583
tp330
a(F6.34717286032
F5.64767089246
tp331
a(F4.5862169994
F4.32862966365
tp332
a(F5.25177871157
F4.86795190134
tp333
a(F4.78103392534
F4.55854194893
tp334
a(F2.52034108788
F2.54494503329
tp335
a(F2.52239474696
F2.45191615976
tp336
a(F6.58801603291
F5.84209539003
tp337
a(F7.51225764105
F6.94216275648
tp338
a(F5.75301387979
F5.48976539501
tp339
a(F7.82778518461
F6.84807438074
tp340
a(F7.79498171609
F7.10732671241
tp341
a(F6.237038384
F6.10895612083
tp342
a(F7.89174111165
F6.90354465732
tp343
a(F6.34677348803
F5.93528248175
tp344
a(F6.98892208453
F6.40833979744
tp345
a(F7.37047250808
F6.5505710266
tp346
a(F1.88869439143
F2.06041204116
tp347
a(F4.19555442017
F4.22557280237
tp348
a(F7.76089294288
F7.62071418176
tp349
a(F7.62823784265
F6.93187310594
tp350
a(F5.45755761445
F5.18398391308
tp351
a(F6.25976896532
F5.94910885471
tp352
a(F5.78990731979
F5.51084045653
tp353
a(F6.05713002422
F5.9208394401
tp354
a(F5.94815387125
F5.52513612094
tp355
a(F6.9680428337
F6.23830178453
tp356
a(F5.83343453438
F5.55800946433
tp357
a(F1.87034543058
F2.33550544168
tp358
a(F8.72785464743
F7.66823639043
tp359
a(F7.22121612209
F6.37879230595
tp360
a(F5.79990935807
F5.52500561222
tp361
a(F6.30320510189
F5.79799334142
tp362
a(F4.8608859571
F4.59896184995
tp363
a(F5.85094456492
F5.63562182132
tp364
a(F6.93805698344
F6.51020320084
tp365
a(F6.12752570965
F5.94046620102
tp366
a(F6.55654296105
F6.34659521192
tp367
a(F3.98854684217
F3.78801379069
tp368
a(F2.14910531093
F2.32412389813
tp369
a(F6.63234523923
F5.75797604934
tp370
a(F6.14748132149
F5.74332277655
tp371
a(F5.55260656973
F5.26604455709
tp372
a(F7.16366453636
F6.49449120829
tp373
a(F6.24989936011
F5.83220275502
tp374
a(F5.9085743971
F5.57889178511
tp375
a(F5.93487820336
F5.54432298729
tp376
a(F6.83903116485
F6.46450491998
tp377
a(F7.06368196445
F6.55873757706
tp378
a(F6.22905290726
F5.74067928249
tp379
a(F2.09652777296
F2.18855645924
tp380
a(F7.95481802546
F7.44083793958
tp381
a(F6.47228387823
F5.92926506786
tp382
a(F6.451558905
F6.39021687856
tp383
a(F6.61782614021
F6.01814177071
tp384
a(F5.54842401312
F5.3463316482
tp385
a(F6.17830525383
F5.91017290199
tp386
a(F6.61399489828
F6.0156577856
tp387
a(F8.07977083137
F6.99523379631
tp388
a(F7.12056830747
F6.42761153572
tp389
a(F6.04472035348
F5.80881936964
tp390
a(F1.97117122489
F2.14157442229
tp391
a(F6.17822004435
F5.98117434856
tp392
a(F6.86993969339
F6.25712554434
tp393
a(F5.40369523744
F5.1750929912
tp394
a(F6.14553946768
F5.91847541291
tp395
a(F5.40269634858
F5.58274564679
tp396
a(F5.91109318197
F5.92093663335
tp397
a(F5.72953544067
F5.23297965185
tp398
a(F5.84826302882
F5.72149953593
tp399
a(F4.82460845657
F4.76964159136
tp400
a(F5.46407992818
F5.26753183345
tp401
a(F1.52885912943
F1.81993422206
tp402
a(F5.83386763311
F5.29577572802
tp403
a(F7.77063672387
F7.1864906135
tp404
a(F5.94853552215
F5.51614005632
tp405
a(F7.17841536641
F6.70286644425
tp406
a(F4.86478309353
F4.98089303731
tp407
a(F6.52428821145
F5.88301210042
tp408
a(F5.97906778769
F5.66393615981
tp409
a(F6.72319868686
F6.33596347972
tp410
a(F5.03278106107
F4.78478297597
tp411
a(F6.56999453869
F6.27621769513
tp412
a(F3.05070844796
F2.81804837304
tp413
a(F5.32173125179
F5.06611363877
tp414
a(F5.42887062497
F5.12089424066
tp415
a(F5.81861940236
F5.45789024856
tp416
a(F5.30736763544
F5.10579293118
tp417
a(F7.42820951435
F7.27619898156
tp418
a(F7.68471037665
F6.69565451589
tp419
a(F7.60929895541
F7.35941185758
tp420
a(F5.39132466581
F5.24236539555
tp421
a(F6.30001755816
F5.6660068216
tp422
a(F7.83507502089
F7.13805287651
tp423
a(F1.16226076281
F1.43265396693
tp424
a(F7.47971226877
F6.37357276021
tp425
a(F6.42333172925
F5.90042765818
tp426
a(F6.54715567054
F5.96191051069
tp427
a(F6.18728657645
F5.880413501
tp428
a(F5.80197308221
F5.55782367545
tp429
a(F6.36590815138
F6.03320547765
tp430
a(F6.24640967966
F6.00651021221
tp431
a(F5.58891536725
F5.34154872027
tp432
a(F8.68679275777
F7.77544406643
tp433
a(F6.15905702154
F5.75679038635
tp434
a(F1.73733818384
F2.15710155251
tp435
a(F6.70401374394
F6.08173893514
tp436
a(F6.65843747574
F6.06497121663
tp437
a(F7.70553943055
F6.83456638133
tp438
a(F6.9301371641
F6.27508331651
tp439
a(F4.41198538666
F4.38671683816
tp440
a(F6.07000469292
F5.75151048339
tp441
a(F6.58270516038
F6.13039226638
tp442
a(F6.02753252699
F5.65138318471
tp443
a(F5.66095168575
F5.34256117733
tp444
a(F6.88226923988
F6.34206416321
tp445
a(F1.53038437548
F2.01088810077
tp446
a(F2.16274901342
F2.49160083364
tp447
a(F1.32557457604
F1.54234914919
tp448
a(F1.57403192512
F1.79439780274
tp449
a(F1.46467410985
F1.72072068865
tp450
a(F2.53793128126
F2.55081792324
tp451
a(F0.514047370239
F1.07867592428
tp452
a(F1.62213770911
F1.90465015274
tp453
a(F2.29218123765
F2.55186706232
tp454
a(F1.29258646033
F1.63784756536
tp455
a(F2.24101415721
F2.24006474625
tp456
a(F1.34584655959
F1.87483082949
tp457
a(F1.84080072674
F2.12831616786
tp458
a(F2.47139821446
F2.43657652049
tp459
a(F1.67364503625
F2.28548373337
tp460
a(F1.51794647883
F2.28435024502
tp461
a(F2.16853832287
F2.36918441247
tp462
a(F2.09726797538
F2.57338149034
tp463
a(F1.97166935253
F2.03895792914
tp464
a(F1.43685259474
F1.81112730089
tp465
a(F3.42370154502
F3.32688289687
tp466
a(F3.07316432697
F3.06704621221
tp467
a(F1.0912872621
F1.38469575543
tp468
a(F2.32597180398
F2.80150800316
tp469
a(F1.71994962199
F1.98229497819
tp470
a(F1.89246787435
F2.12329229097
tp471
a(F1.97068733027
F1.97728912743
tp472
a(F1.06083077694
F1.42234269783
tp473
a(F2.05371630332
F2.35464610278
tp474
a(F0.807160156079
F1.13825236995
tp475
a(F0.711279402
F1.31805718596
tp476
a(F1.84029767024
F1.9599539319
tp477
a(F1.13803633209
F1.774572588
tp478
a(F2.25047778078
F2.61837624762
tp479
a(F0.891705605281
F1.33243902923
tp480
a(F1.51438772779
F1.82430416324
tp481
a(F1.929312333
F2.22068009226
tp482
a(F2.16127658174
F2.23615189219
tp483
a(F1.6698811887
F1.88987674325
tp484
a(F1.06763650527
F1.47146230459
tp485
a(F1.06699436548
F1.38682649657
tp486
a(F1.49088233195
F1.80447142472
tp487
a(F2.17817499486
F2.29220001296
tp488
a(F1.58408770136
F1.89229373835
tp489
a(F1.8303555633
F2.20432586155
tp490
a(F2.22574120901
F2.25147647375
tp491
a(F1.75874604674
F2.11641708431
tp492
a(F0.796456427774
F1.26565495829
tp493
a(F2.53573046824
F2.66889983725
tp494
a(F2.41883173753
F2.64341190756
tp495
a(F1.4875779175
F1.71044066195
tp496
a(F2.93328174246
F2.65854914699
tp497
a(F1.10499192889
F1.54437892663
tp498
a(F1.99161681673
F2.14667783917
tp499
a(F2.55225428916
F2.43632835815
tp500
a.