(lp0
(F0.959880840682
F-2.14667497103
tp1
a(F1.11117795633
F-2.17169633565
tp2
a(F0.91882672196
F-2.11165725863
tp3
a(F2.95506089229
F-4.12734108112
tp4
a(F3.51462824889
F-2.33925904909
tp5
a(F2.4554859352
F-3.54969642751
tp6
a(F3.30934759924
F-2.19196477431
tp7
a(F3.10494078299
F-1.8300888424
tp8
a(F3.7783512861
F-1.44175235944
tp9
a(F3.35702684994
F-2.32613034745
tp10
a(F3.25807934184
F-2.58096738007
tp11
a(F2.86156748694
F-2.33506320098
tp12
a(F3.20884621301
F-2.41076298916
tp13
a(F3.27889795206
F-2.05002783229
tp14
a(F2.45358101744
F-2.32133055409
tp15
a(F3.83825532499
F-2.5947430146
tp16
a(F3.29991233468
F-2.26328169772
tp17
a(F3.78355294483
F-1.54722706431
tp18
a(F3.03856400305
F-3.23790304789
tp19
a(F0.416225904399
F-1.44120255197
tp20
a(F2.94873893895
F-2.41822502895
tp21
a(F3.68978265897
F-2.17945122448
tp22
a(F3.25369969134
F-1.9824210188
tp23
a(F3.53606412264
F-2.24008699069
tp24
a(F2.68687845208
F-2.45982206487
tp25
a(F1.5077731394
F-1.70416978549
tp26
a(F3.42776882088
F-1.9960379954
tp27
a(F3.82946756251
F-1.87825035603
tp28
a(F3.0479313102
F-2.12501767707
tp29
a(F3.48115024865
F-2.62514357667
tp30
a(F3.0415778914
F-1.51110470191
tp31
a(F3.19737830035
F-2.28529955591
tp32
a(F1.78129776946
F-1.64712329408
tp33
a(F3.30049435258
F-2.09061868532
tp34
a(F3.88251088056
F-0.603245104971
tp35
a(F3.24361470366
F-1.70365418183
tp36
a(F3.41793362609
F-1.83200288304
tp37
a(F3.11745005557
F-2.4932352845
tp38
a(F1.03429334775
F-1.30641302806
tp39
a(F2.61907985183
F-1.84489972798
tp40
a(F4.19872989914
F-2.50164670305
tp41
a(F3.30175096556
F-2.02368995626
tp42
a(F3.87393143466
F-1.88434130678
tp43
a(F1.48439010482
F-2.0172154175
tp44
a(F4.39536148247
F-2.03229592628
tp45
a(F2.41161788505
F-1.7398309643
tp46
a(F3.10165479439
F-1.86814505083
tp47
a(F2.96298513144
F-2.29495749326
tp48
a(F3.49439849114
F-2.64092641636
tp49
a(F3.76117450567
F-2.23159576561
tp50
a(F3.29886973968
F-4.26817576766
tp51
a(F2.71463181609
F-2.95458149372
tp52
a(F3.05890090032
F-2.32623109068
tp53
a(F3.22786894317
F-1.92314506327
tp54
a(F0.993151660961
F-2.02296862844
tp55
a(F3.03496311811
F-1.87000762403
tp56
a(F3.17988392804
F-1.81786577333
tp57
a(F3.27160924772
F-1.69463723176
tp58
a(F4.90541915809
F-3.91495552764
tp59
a(F3.72940849891
F-2.00942612919
tp60
a(F3.31682000718
F-4.00038819732
tp61
a(F2.88510501212
F-1.99205457355
tp62
a(F2.16154181662
F-2.4744163034
tp63
a(F2.96805980195
F-2.00868453872
tp64
a(F3.62608071329
F-2.31678621601
tp65
a(F4.25048036213
F-3.40219642527
tp66
a(F4.75414192504
F-1.99549381854
tp67
a(F4.76549347597
F-2.32093288765
tp68
a(F5.38321794868
F-2.19364479202
tp69
a(F4.82276178115
F-1.43645549395
tp70
a(F3.70694977132
F-2.23110196925
tp71
a(F4.05415552479
F-2.7300384807
tp72
a(F4.92454240009
F-3.39632926439
tp73
a(F4.61646159591
F-0.598269407319
tp74
a(F5.20408450355
F-0.85988843056
tp75
a(F3.9611897242
F-2.58939796341
tp76
a(F4.25703394256
F-2.06949313181
tp77
a(F4.18656389743
F-1.75706000151
tp78
a(F4.83194328574
F-3.47936763781
tp79
a(F4.3244469103
F-2.35868285266
tp80
a(F3.8691133937
F-2.21137690698
tp81
a(F5.52936891262
F-2.0957207446
tp82
a(F5.40003919455
F-1.69803697987
tp83
a(F3.95295113608
F-2.74866351614
tp84
a(F4.3392503688
F-1.91632516769
tp85
a(F5.02481879357
F-1.67304403881
tp86
a(F4.74979103426
F-3.16800838015
tp87
a(F4.54146512243
F-1.52926426387
tp88
a(F3.33336874645
F-1.25295672949
tp89
a(F4.60815299767
F-1.31731026242
tp90
a(F0.910700592013
F-1.28170661312
tp91
a(F5.39638419029
F-2.73082848483
tp92
a(F4.05969196882
F-3.61706152115
tp93
a(F5.11677985189
F-1.77467592059
tp94
a(F4.26986250598
F-2.43043935161
tp95
a(F5.0987468134
F-2.3038931876
tp96
a(F5.37905442068
F-4.05922725672
tp97
a(F4.81166430234
F-2.14961710453
tp98
a(F4.82108072558
F-1.20473862379
tp99
a(F4.41133532181
F-1.75569518733
tp100
a(F3.8494040254
F-0.123372981879
tp101
a(F5.0124476324
F-1.81035142339
tp102
a(F4.39369580893
F-1.33243210806
tp103
a(F4.82972199255
F-1.73607189924
tp104
a(F3.77536774094
F-1.72058297287
tp105
a(F3.98863000995
F-2.47204088302
tp106
a(F4.970296015
F-2.04074485469
tp107
a(F3.98110396861
F-3.31446439936
tp108
a(F5.20479138343
F-0.575947523078
tp109
a(F5.07230182856
F-2.47235736847
tp110
a(F4.65454214085
F-1.34531422874
tp111
a(F5.18914398827
F-1.2579863558
tp112
a(F4.64414131826
F-2.63541182891
tp113
a(F5.37905781177
F-1.47995091413
tp114
a(F4.36160686346
F-1.94812577705
tp115
a(F4.18114007163
F-1.83604417705
tp116
a(F3.84759040202
F-1.71303504585
tp117
a(F4.66649039221
F-1.0882595391
tp118
a(F5.44054260996
F-2.82547805198
tp119
a(F4.73770561358
F-2.26563070482
tp120
a(F5.18530717639
F-0.49570433117
tp121
a(F3.77908275762
F-1.55014942125
tp122
a(F4.62414044453
F-1.92713360671
tp123
a(F4.70477223562
F-1.45308250239
tp124
a(F4.05981069531
F-1.47705364876
tp125
a(F3.93090741706
F-1.81743365927
tp126
a(F4.76997770463
F-3.10560915773
tp127
a(F2.84377092589
F-1.32928104484
tp128
a(F4.81166163459
F-2.22647387418
tp129
a(F4.35315949751
F-2.30808210579
tp130
a(F4.4178666504
F-2.19070453908
tp131
a(F4.37720626934
F-2.07340236746
tp132
a(F4.28115721018
F-2.4760985187
tp133
a(F5.47506753172
F-2.97629345389
tp134
a(F5.00240023611
F-1.32332540973
tp135
a(F5.13582012219
F-1.20168147764
tp136
a(F4.39432539725
F-2.02859899676
tp137
a(F5.19857281902
F-1.15007733803
tp138
a(F3.96454513056
F-1.44628221741
tp139
a(F3.61510219091
F-2.56789238174
tp140
a(F0.842538277155
F-1.80195800202
tp141
a(F5.44774714122
F-1.29665433331
tp142
a(F4.08162823758
F0.442440900307
tp143
a(F4.77508598245
F-1.12473599242
tp144
a(F5.11149821242
F-0.697838453733
tp145
a(F5.14841136412
F-1.51812710133
tp146
a(F5.93286173748
F-0.283883853764
tp147
a(F5.43959642405
F-0.742668179031
tp148
a(F7.42526038642
F-0.576693525512
tp149
a(F5.6793757341
F-1.17449764457
tp150
a(F2.25538613508
F-1.54325919085
tp151
a(F5.53630765234
F-2.39052854074
tp152
a(F5.5831900838
F-2.06077682963
tp153
a(F5.26539609358
F-1.83878221378
tp154
a(F5.51322655003
F-0.227317521515
tp155
a(F4.21106310468
F-1.789605371
tp156
a(F5.29945707745
F-1.9357749126
tp157
a(F4.63109647557
F-3.09274971841
tp158
a(F5.85817671243
F-2.19176087253
tp159
a(F4.88081404856
F-0.707233537882
tp160
a(F6.21691553281
F-1.55723852274
tp161
a(F1.17391114384
F-1.49057728524
tp162
a(F4.88821211723
F-0.676297233209
tp163
a(F4.50790926951
F-0.679043742627
tp164
a(F4.55428818952
F-1.24822059201
tp165
a(F4.10681874091
F-1.38242780193
tp166
a(F4.99142903773
F-4.6099965411
tp167
a(F5.68181631233
F0.0144988670207
tp168
a(F6.04480514351
F-0.31671939567
tp169
a(F5.45555631743
F-1.39925398418
tp170
a(F4.59428959366
F0.286785943274
tp171
a(F5.63545026015
F-2.88730499878
tp172
a(F5.62988142815
F-0.378073916263
tp173
a(F5.59078044909
F-0.657623073725
tp174
a(F2.23879062736
F-1.80363716567
tp175
a(F4.63782766133
F-0.406467252243
tp176
a(F5.5931666135
F-0.780850525041
tp177
a(F5.43833322888
F-0.916215150791
tp178
a(F5.54015343794
F-1.07022354563
tp179
a(F5.54094968607
F0.162139049474
tp180
a(F6.04286236563
F-0.552549305483
tp181
a(F5.30097611592
F-0.482246260341
tp182
a(F5.37738457538
F-1.16167040218
tp183
a(F6.15347137129
F-1.83666667557
tp184
a(F5.08957781791
F-1.28416165586
tp185
a(F5.30164234883
F-3.22933078326
tp186
a(F5.93984259895
F-1.07736635199
tp187
a(F6.48716558555
F0.4054232069
tp188
a(F5.20158414575
F-1.2083103416
tp189
a(F6.48101245692
F-0.263830699311
tp190
a(F1.92285992891
F-1.62640909812
tp191
a(F5.44336948486
F-2.64303493287
tp192
a(F5.40860102064
F-3.17214264816
tp193
a(F4.91508797031
F-0.880892987737
tp194
a(F6.10354746718
F-0.607825972185
tp195
a(F6.1646860971
F-1.93138678654
tp196
a(F4.54349789529
F-1.56233487692
tp197
a(F4.95244389495
F-0.401510428953
tp198
a(F5.41605846427
F-0.257496423062
tp199
a(F5.77077625843
F-1.30135744427
tp200
a(F5.94186867869
F-1.285422076
tp201
a(F5.09650551019
F-0.330293993857
tp202
a(F5.45766187567
F-1.08973673237
tp203
a(F5.38976516859
F-1.48838261654
tp204
a(F6.07645832181
F-0.290919830586
tp205
a(F1.25250475474
F-2.10566714406
tp206
a(F5.6482717258
F-1.90637371106
tp207
a(F4.57082101935
F-3.30085559779
tp208
a(F5.02455181297
F-2.07854191807
tp209
a(F4.86934128554
F-0.177359586964
tp210
a(F4.81860496399
F-0.191268700634
tp211
a(F4.97587523267
F-0.64961376363
tp212
a(F6.36560359046
F-0.774901104682
tp213
a(F5.02743936616
F-1.1438949268
tp214
a(F0.637072176949
F-1.79168079848
tp215
a(F4.88825335697
F-1.46629738143
tp216
a(F5.37550230962
F-0.300270032092
tp217
a(F6.75523290269
F-1.05624484958
tp218
a(F6.08208327989
F-0.977942172017
tp219
a(F5.05253695234
F-2.79652771659
tp220
a(F5.681714089
F-0.785326495619
tp221
a(F5.14376194637
F-0.535594859045
tp222
a(F4.87321634819
F0.21126572773
tp223
a(F0.902671073872
F-2.21638222788
tp224
a(F1.91107794644
F-2.38326218605
tp225
a(F2.08995129292
F-1.11772548264
tp226
a(F1.50668785511
F-2.01609806758
tp227
a(F1.2051438299
F-1.70187465859
tp228
a(F1.37683927674
F-2.01712671897
tp229
a(F0.646397341755
F-1.42792130631
tp230
a(F1.45692986019
F-2.116834192
tp231
a(F1.29042216505
F-2.252997906
tp232
a(F2.03298578077
F-2.11842231142
tp233
a(F0.854353857847
F-1.63652536825
tp234
a(F0.78135497402
F-2.97597733103
tp235
a(F1.47019690401
F-1.69275342483
tp236
a(F0.793186924068
F-2.02409913029
tp237
a(F1.10812914647
F-1.526842692
tp238
a(F1.57612492367
F-2.42540280038
tp239
a(F1.27631505287
F-1.69287002844
tp240
a(F1.30853567918
F-1.5888334253
tp241
a(F1.99143356768
F-1.84035709047
tp242
a(F0.734034506956
F-1.97601471619
tp243
a(F1.31996219329
F-1.56502727066
tp244
a(F1.28758974115
F-1.68950316747
tp245
a(F0.890211307175
F-1.89975879359
tp246
a(F1.86922571329
F-2.20222732837
tp247
a(F1.09456771114
F-1.85666942525
tp248
a(F1.25340588304
F-1.62782375024
tp249
a(F1.20041746851
F-1.93154980851
tp250
a.