(lp0
(F-1.44456196938
F2.589523611
tp1
a(F-1.34844063014
F2.251010545
tp2
a(F-1.80985667395
F2.20109175191
tp3
a(F-2.7609265457
F3.63350392803
tp4
a(F-0.941162375888
F3.58600407467
tp5
a(F-1.1785755491
F4.1381322508
tp6
a(F-1.48879175525
F2.81646354721
tp7
a(F-0.758643961438
F4.1620316136
tp8
a(F-1.21546348174
F4.09412166276
tp9
a(F-1.24818142633
F4.58875891733
tp10
a(F-1.85305063733
F2.2966742632
tp11
a(F-1.80473450251
F2.78517240863
tp12
a(F-1.72265286827
F4.07507316651
tp13
a(F-1.86470788663
F2.24085906806
tp14
a(F-0.756702063351
F3.71623628618
tp15
a(F-1.0380112848
F3.25270244691
tp16
a(F-1.06918859072
F3.09317670681
tp17
a(F-0.898636360896
F3.4023044249
tp18
a(F-1.63729567276
F3.28649477846
tp19
a(F-0.579387044328
F4.28490209803
tp20
a(F-1.36257423455
F4.2180069316
tp21
a(F-2.56876752715
F2.85687211162
tp22
a(F-0.420158539939
F3.57238320495
tp23
a(F-2.06101880687
F3.5085218434
tp24
a(F-1.31063639155
F2.09766884002
tp25
a(F-1.15607433034
F3.31573845301
tp26
a(F-0.968211642838
F3.33634146443
tp27
a(F-1.44126981658
F2.82734942173
tp28
a(F-2.19941230454
F4.02724699261
tp29
a(F-1.23274267166
F3.55964728753
tp30
a(F-1.71818041983
F2.96472121138
tp31
a(F-1.68230647587
F3.38678323024
tp32
a(F-1.55490404058
F3.60685384454
tp33
a(F-1.57952875457
F3.85909850122
tp34
a(F-0.0810292130509
F4.33233170573
tp35
a(F-1.25698604848
F1.0426391765
tp36
a(F-1.31664744726
F3.85517012733
tp37
a(F-1.11074744469
F3.31093425618
tp38
a(F-1.48311380649
F3.95578670697
tp39
a(F-1.96169584507
F4.14689799776
tp40
a(F-1.66241419424
F4.00696613298
tp41
a(F-1.41553653694
F3.25020242907
tp42
a(F-1.55466023285
F3.254404061
tp43
a(F-2.52860111333
F3.32477680073
tp44
a(F-1.26656650277
F3.53083699468
tp45
a(F-0.749141837967
F3.5347874875
tp46
a(F-1.30223989727
F2.46409055405
tp47
a(F-1.27983925427
F2.92875528072
tp48
a(F-1.59523292657
F3.71265284858
tp49
a(F-2.23705740971
F3.14640791688
tp50
a(F-1.60045187504
F3.28039569266
tp51
a(F-1.34879578911
F3.53072381323
tp52
a(F-0.540420452665
F4.15620637642
tp53
a(F-1.80586680993
F3.7698355309
tp54
a(F-1.74850716066
F3.48383700845
tp55
a(F-1.76083411444
F2.43376770097
tp56
a(F-2.17415534222
F2.63967545345
tp57
a(F-2.3026146917
F1.7891115282
tp58
a(F-1.20704870836
F2.77916253821
tp59
a(F-1.53257419921
F3.28820124209
tp60
a(F-0.851121902282
F3.54712329921
tp61
a(F-0.810060036095
F3.8602654413
tp62
a(F-1.54193932344
F3.64356317517
tp63
a(F-0.0698941264764
F4.95180205968
tp64
a(F-2.89554415394
F3.94611374632
tp65
a(F-0.465937720044
F3.18141755184
tp66
a(F-1.87744645942
F3.67204882918
tp67
a(F-1.76791157277
F3.92212748668
tp68
a(F-1.76223486055
F1.62067572335
tp69
a(F-1.87049624013
F2.79966727347
tp70
a(F-1.35535520011
F3.75219882917
tp71
a(F-2.91999913398
F4.31849679867
tp72
a(F-1.03203444367
F2.47641222159
tp73
a(F-1.47956661693
F2.54628722433
tp74
a(F-1.71068318401
F2.45246950333
tp75
a(F-0.826663825343
F3.86671512439
tp76
a(F-1.08070725142
F3.51682312697
tp77
a(F-1.54017894955
F2.46019089664
tp78
a(F-1.69196111719
F2.77011354178
tp79
a(F-2.0403624675
F1.94768785348
tp80
a(F-0.388206876691
F3.84592379266
tp81
a(F-1.72585664751
F3.0942604581
tp82
a(F-1.13633488465
F3.95192204215
tp83
a(F-1.39874140231
F4.25059111042
tp84
a(F-1.56677006118
F3.48307270169
tp85
a(F-2.06093531126
F3.46267922841
tp86
a(F-1.12903653034
F2.85951700256
tp87
a(F-1.47640739018
F3.81832006186
tp88
a(F-1.33770850345
F4.36615456632
tp89
a(F-1.81875275787
F3.75397797152
tp90
a(F-1.62727825515
F2.27227296712
tp91
a(F-2.28253614849
F2.94572434754
tp92
a(F-1.15483399045
F3.85424805189
tp93
a(F-0.93064029641
F4.03285436342
tp94
a(F-1.28558729744
F3.40540739124
tp95
a(F-0.422096290178
F3.98206648568
tp96
a(F-2.64590654783
F4.21185092392
tp97
a(F-1.16177382845
F2.60966235861
tp98
a(F-1.76237907711
F4.05592271142
tp99
a(F-1.42924765408
F3.75677309986
tp100
a(F-1.00483385467
F4.6373456014
tp101
a(F-1.17253673206
F1.93065784999
tp102
a(F-0.621137469293
F3.65297286159
tp103
a(F-2.1782161903
F3.97768429326
tp104
a(F-1.34588987788
F2.35789481503
tp105
a(F-1.62535619226
F2.69086272161
tp106
a(F-0.855945673327
F2.32436349821
tp107
a(F-1.20777577277
F2.73034578444
tp108
a(F-1.68111834924
F3.49610714444
tp109
a(F-2.05008485627
F2.64850827904
tp110
a(F-1.55124285668
F3.32970787155
tp111
a(F-1.49312694594
F4.28913698253
tp112
a(F-0.955604788051
F1.74551977709
tp113
a(F-2.04853979455
F2.44999547901
tp114
a(F-0.955021074284
F4.27216612602
tp115
a(F-0.718663499375
F4.86915074296
tp116
a(F-1.51250917648
F3.71058863734
tp117
a(F-3.14296661019
F4.58033184093
tp118
a(F-0.902532832314
F2.69391356371
tp119
a(F-0.234573571612
F6.03649826463
tp120
a(F-1.283127665
F3.62013324932
tp121
a(F-0.539408363755
F3.63140660542
tp122
a(F-1.44143676357
F5.0438991207
tp123
a(F-1.32384765198
F4.10285702652
tp124
a(F-0.87495713587
F1.24339599193
tp125
a(F-1.82701373178
F4.84891762474
tp126
a(F-1.2795513367
F4.34286022321
tp127
a(F-0.780715022354
F4.00337314661
tp128
a(F-2.7177488591
F5.19509713075
tp129
a(F-0.681478541205
F4.09194318222
tp130
a(F-0.324994708771
F5.88708631176
tp131
a(F-0.376282960375
F4.53411622435
tp132
a(F-1.2068648001
F5.0253038703
tp133
a(F-0.954750854178
F4.96398858523
tp134
a(F-1.23786367388
F4.67140342042
tp135
a(F-1.55255914166
F1.46422404064
tp136
a(F-1.78526967834
F5.04745196905
tp137
a(F-1.57372496473
F3.66213431851
tp138
a(F-2.09782498882
F5.96370079528
tp139
a(F-1.48338617049
F3.12325956469
tp140
a(F-1.9554055166
F4.36431848888
tp141
a(F-0.486388495291
F5.08037532455
tp142
a(F-0.898508515817
F4.50006494425
tp143
a(F-1.14145275225
F3.3176839885
tp144
a(F-1.34580606151
F4.64439175367
tp145
a(F-0.874591213311
F2.90586416234
tp146
a(F-1.12374336943
F2.26717301829
tp147
a(F-0.54271947355
F5.55015311894
tp148
a(F-2.11028889533
F5.57578913502
tp149
a(F-0.835682142026
F4.25971119447
tp150
a(F-0.63954758786
F4.75194623679
tp151
a(F-0.834667238337
F5.72659685349
tp152
a(F-1.21219587469
F3.28093679863
tp153
a(F-1.0900843951
F3.85940373007
tp154
a(F-1.7745587389
F4.26491209073
tp155
a(F0.165104395694
F4.86372707322
tp156
a(F-0.695307265016
F2.86781356673
tp157
a(F-1.59361030389
F2.40220339766
tp158
a(F-1.20304031242
F4.82062975391
tp159
a(F-0.0545773128627
F3.51000127657
tp160
a(F-1.42797539731
F3.95026182024
tp161
a(F-2.74060545367
F3.66815616404
tp162
a(F-0.9475519168
F5.68603839961
tp163
a(F-2.79904971555
F4.54887402277
tp164
a(F-0.85631471266
F4.15031658403
tp165
a(F-2.44982716056
F5.23641157701
tp166
a(F-1.97268690946
F4.61551125083
tp167
a(F-0.676719336394
F5.77193379411
tp168
a(F-1.34438467113
F2.81003327038
tp169
a(F-0.654534409419
F5.60172462975
tp170
a(F-1.68760471524
F4.24649348377
tp171
a(F-0.591930392134
F4.50584145069
tp172
a(F-1.2971662235
F4.07315756616
tp173
a(F-0.0110651398629
F3.7711519613
tp174
a(F-1.20474157718
F4.81288743196
tp175
a(F-1.71724850727
F4.40073620614
tp176
a(F-1.83684279198
F3.63876427381
tp177
a(F-1.78855481871
F5.27308428465
tp178
a(F-0.976836486297
F4.2606607605
tp179
a(F-1.67740522053
F1.62149270191
tp180
a(F-1.52797076305
F4.22739748757
tp181
a(F-0.954032663654
F5.10431092549
tp182
a(F-0.602073168016
F4.73413239064
tp183
a(F-0.544321737809
F2.88229298364
tp184
a(F-1.17465304367
F4.42873820062
tp185
a(F-0.422983812221
F4.90073070081
tp186
a(F-0.72811017991
F3.5038702196
tp187
a(F0.0402574311619
F4.61341665067
tp188
a(F-0.865531064279
F4.19055960386
tp189
a(F-1.53753566092
F4.60760738533
tp190
a(F-1.14412414104
F2.08505685828
tp191
a(F-0.406572892683
F4.01790993173
tp192
a(F-1.16689141702
F4.36445456206
tp193
a(F-0.363552755973
F3.88761613708
tp194
a(F-0.283577695537
F4.70899135316
tp195
a(F-0.52911647964
F4.1578997684
tp196
a(F-0.739239794946
F5.26921321259
tp197
a(F-1.37212755751
F4.34220562162
tp198
a(F-1.16277640297
F4.65295232711
tp199
a(F-2.1822299155
F5.82569185402
tp200
a(F-0.706088329365
F2.56802527543
tp201
a(F-1.03557978717
F1.85974782821
tp202
a(F-0.370602113197
F3.60996556982
tp203
a(F-1.91063518599
F5.46505920663
tp204
a(F-1.35090642145
F4.57220847211
tp205
a(F-1.34634490195
F5.36180483187
tp206
a(F-1.98839283177
F4.26070263391
tp207
a(F-0.818257364033
F4.40332148127
tp208
a(F-1.01416666748
F4.74414513868
tp209
a(F-1.25079895908
F4.67737601176
tp210
a(F-1.01568859046
F3.59239341028
tp211
a(F-1.60317762288
F4.05423192021
tp212
a(F-1.76987867399
F2.47850529611
tp213
a(F-0.252060256465
F5.43516231801
tp214
a(F-1.45942216318
F4.59415728356
tp215
a(F-1.16254623758
F4.69098935586
tp216
a(F-1.27880509673
F4.98088065007
tp217
a(F-0.490418068136
F5.33630975512
tp218
a(F-1.56208261567
F5.16626008235
tp219
a(F-2.11694769397
F4.52176484635
tp220
a(F-1.70061176776
F3.79348392186
tp221
a(F-0.759194768833
F2.8563050252
tp222
a(F-0.164309844808
F4.8301524136
tp223
a(F-1.14568371066
F2.35557448328
tp224
a(F-1.17245898046
F1.26198815299
tp225
a(F0.245242480538
F4.31419913771
tp226
a(F-0.0171347454849
F4.80835690948
tp227
a(F-0.615711989788
F4.1265252274
tp228
a(F0.648521738383
F4.80702947168
tp229
a(F0.254915306962
F4.8925209668
tp230
a(F-1.00701304515
F5.53289095018
tp231
a(F-1.9626119514
F6.79364182977
tp232
a(F0.335017375162
F3.41713423374
tp233
a(F-1.34235324408
F4.54444175429
tp234
a(F0.196089495222
F4.7691717746
tp235
a(F-2.35347925491
F2.39072963996
tp236
a(F-0.405819635799
F5.11778225398
tp237
a(F1.36496474294
F5.34323680507
tp238
a(F-0.52815081154
F5.3638382974
tp239
a(F-1.12178972796
F4.98659811625
tp240
a(F-0.333353003191
F4.19133558014
tp241
a(F0.0577742704649
F5.34026507785
tp242
a(F0.713554120027
F4.8299110352
tp243
a(F-0.794276217084
F5.19548115015
tp244
a(F0.160838236132
F5.75721584636
tp245
a(F-1.30504099968
F6.0151398483
tp246
a(F-1.45738064382
F1.89097761928
tp247
a(F-0.499928370407
F4.63680859764
tp248
a(F-0.000912145810486
F4.49167085776
tp249
a(F0.246244895655
F4.91886143932
tp250
a(F0.198408937476
F5.31478943055
tp251
a(F-1.36857097707
F6.0704230581
tp252
a(F-0.133648247873
F4.05204058444
tp253
a(F0.228568024054
F5.59460706564
tp254
a(F0.684879874967
F4.6124802759
tp255
a(F-0.054708843207
F5.64959135281
tp256
a(F-0.24715869247
F3.36295681011
tp257
a(F-1.34985791103
F1.86447497567
tp258
a(F0.0508225566022
F4.81838349083
tp259
a(F0.152581772637
F5.9083609632
tp260
a(F0.726511855336
F4.23254640242
tp261
a(F-1.36561493008
F5.23262419375
tp262
a(F-0.587194906508
F5.44902029388
tp263
a(F0.0895887203222
F4.74833055649
tp264
a(F-0.327460972832
F4.33762302772
tp265
a(F0.518155595558
F5.20075988593
tp266
a(F-0.0492280428826
F5.44498074274
tp267
a(F-0.0330612791285
F4.24605187641
tp268
a(F-0.805391884535
F2.47180674499
tp269
a(F-0.357958159608
F4.53215674528
tp270
a(F-0.495651836846
F5.42325659761
tp271
a(F0.126937129906
F6.1967463442
tp272
a(F0.643782330823
F4.78640439429
tp273
a(F0.175171073147
F5.0214499249
tp274
a(F0.940544134752
F3.90429655183
tp275
a(F-0.974191163404
F6.32571620817
tp276
a(F-0.846397581784
F4.51312153635
tp277
a(F-0.285650543769
F4.37679587008
tp278
a(F-0.523952981046
F6.32096243901
tp279
a(F-2.01708602912
F2.26409180512
tp280
a(F1.73229606804
F6.19038465746
tp281
a(F-1.06110494787
F5.20617368032
tp282
a(F-0.887053586844
F4.83364497974
tp283
a(F-0.948578747498
F6.51051227036
tp284
a(F-0.257911140988
F4.74860278829
tp285
a(F-0.398162803392
F4.13672064348
tp286
a(F-0.141910154385
F5.16412520808
tp287
a(F-2.90484228243
F4.70704559331
tp288
a(F-0.147658524777
F5.04435541678
tp289
a(F0.0948708963643
F4.4390973565
tp290
a(F-1.94611743428
F1.83960898424
tp291
a(F-0.860749419732
F4.87802003509
tp292
a(F0.101442533869
F5.9809573773
tp293
a(F-0.749914814045
F6.1414195365
tp294
a(F-0.336704213305
F3.75659136436
tp295
a(F-0.220959620826
F5.6060910644
tp296
a(F-0.16800946778
F6.20722850094
tp297
a(F-1.08826928242
F4.21906924093
tp298
a(F0.0295891485487
F5.60191034395
tp299
a(F-0.170792592029
F4.44413687091
tp300
a(F-0.616847056509
F4.68290487333
tp301
a(F-1.51012792322
F2.0373961777
tp302
a(F-1.54961614826
F6.11124735565
tp303
a(F-0.1706016311
F4.98489757343
tp304
a(F-0.337187381981
F6.319744766
tp305
a(F-1.36928983077
F7.68790329437
tp306
a(F-0.765454717029
F5.03862992902
tp307
a(F-0.237151175286
F5.61852547194
tp308
a(F-0.414545553018
F3.90846737363
tp309
a(F-0.364951678382
F4.66002820063
tp310
a(F-0.727989491358
F5.32271908907
tp311
a(F-0.374384403169
F4.07218173988
tp312
a(F-1.19359583416
F1.75140634717
tp313
a(F-0.959981037343
F4.12036312299
tp314
a(F-1.30393314912
F4.82283425302
tp315
a(F0.165519043812
F3.9214382642
tp316
a(F-0.531537324389
F6.06173776064
tp317
a(F-0.436500877535
F4.87004599723
tp318
a(F-0.538046545046
F4.65005905625
tp319
a(F0.158175447445
F4.54174155027
tp320
a(F-0.403311321587
F4.05403344445
tp321
a(F-0.334806715564
F4.08132738696
tp322
a(F-0.0342816968628
F4.17955080494
tp323
a(F-2.11273638272
F2.09976236411
tp324
a(F0.580909797856
F4.65882872278
tp325
a(F0.311623777258
F4.73839033902
tp326
a(F-2.33998968583
F6.27789254559
tp327
a(F-0.37816929792
F4.73502704928
tp328
a(F0.548647158622
F4.41263503779
tp329
a(F-0.215906059841
F4.32407143583
tp330
a(F-1.96339149224
F5.64767089246
tp331
a(F0.24915916362
F4.32862966365
tp332
a(F-0.238783726824
F4.86795190134
tp333
a(F0.715171245348
F4.55854194893
tp334
a(F-1.64267860412
F2.54494503329
tp335
a(F-1.2302589634
F2.45191615976
tp336
a(F-1.47829762049
F2.06041204116
tp337
a(F-0.754727525884
F2.33550544168
tp338
a(F-1.1610844938
F2.32412389813
tp339
a(F-2.19377885629
F2.18855645924
tp340
a(F-1.33571457304
F2.14157442229
tp341
a(F-1.23556225411
F1.81993422206
tp342
a(F-2.94297859634
F2.81804837304
tp343
a(F-1.57528401349
F1.43265396693
tp344
a(F-1.04322062606
F2.15710155251
tp345
a(F-1.08794876935
F2.01088810077
tp346
a(F-1.25882775201
F2.49160083364
tp347
a(F-1.86619005461
F1.54234914919
tp348
a(F-1.62261379503
F1.79439780274
tp349
a(F-1.62877786545
F1.72072068865
tp350
a(F-1.85589708973
F2.55081792324
tp351
a(F-1.34235148058
F1.07867592428
tp352
a(F-1.2162406654
F1.90465015274
tp353
a(F-1.9270703039
F2.55186706232
tp354
a(F-1.63361786698
F1.63784756536
tp355
a(F-1.23219207424
F2.24006474625
tp356
a(F-1.6984440458
F1.87483082949
tp357
a(F-1.46588109035
F2.12831616786
tp358
a(F-1.54780579002
F2.43657652049
tp359
a(F-1.73075844373
F2.28548373337
tp360
a(F-1.2559877683
F2.28435024502
tp361
a(F-2.56383203744
F2.36918441247
tp362
a(F-1.06076577868
F2.57338149034
tp363
a(F-2.66420382707
F2.03895792914
tp364
a(F-0.735867242587
F1.81112730089
tp365
a(F-0.810430174446
F3.32688289687
tp366
a(F-1.45679840487
F3.06704621221
tp367
a(F-1.43666845212
F1.38469575543
tp368
a(F-1.46564749296
F2.80150800316
tp369
a(F-0.880989462333
F1.98229497819
tp370
a(F-1.31987403056
F2.12329229097
tp371
a(F-1.84613200361
F1.97728912743
tp372
a(F-1.33078458756
F1.42234269783
tp373
a(F-1.68985089391
F2.35464610278
tp374
a(F-2.33442309403
F1.13825236995
tp375
a(F-1.16512309891
F1.31805718596
tp376
a(F-1.60200137928
F1.9599539319
tp377
a(F-2.32834406297
F1.774572588
tp378
a(F-1.48742967038
F2.61837624762
tp379
a(F-2.06587109111
F1.33243902923
tp380
a(F-1.84450068213
F1.82430416324
tp381
a(F-1.17437700503
F2.22068009226
tp382
a(F-1.72879710336
F2.23615189219
tp383
a(F-1.90499863333
F1.88987674325
tp384
a(F-1.38912744154
F1.47146230459
tp385
a(F-1.69010288672
F1.38682649657
tp386
a(F-1.44237545671
F1.80447142472
tp387
a(F-1.07523270924
F2.29220001296
tp388
a(F-1.54880994613
F1.89229373835
tp389
a(F-1.10466658253
F2.20432586155
tp390
a(F-1.3109058517
F2.25147647375
tp391
a(F-1.50778369619
F2.11641708431
tp392
a(F-1.51675306074
F1.26565495829
tp393
a(F-0.0974174133555
F2.66889983725
tp394
a(F-0.928391966414
F2.64341190756
tp395
a(F-0.941907173481
F1.71044066195
tp396
a(F-0.838107953107
F2.65854914699
tp397
a(F-1.48975430051
F1.54437892663
tp398
a(F-1.98578802633
F2.14667783917
tp399
a(F-2.2412581029
F2.43632835815
tp400
a.