(lp0
(F-2.14667497103
F1.39554445571
tp1
a(F-2.17169633565
F1.5519586616
tp2
a(F-2.11165725863
F1.29968854253
tp3
a(F-4.12734108112
F2.94435985092
tp4
a(F-2.33925904909
F3.5386404752
tp5
a(F-3.54969642751
F2.56548852418
tp6
a(F-2.19196477431
F3.3029362694
tp7
a(F-1.8300888424
F3.06573466529
tp8
a(F-1.44175235944
F3.43042494095
tp9
a(F-2.32613034745
F3.4772100586
tp10
a(F-2.58096738007
F3.10567233838
tp11
a(F-2.33506320098
F2.91265752468
tp12
a(F-2.41076298916
F3.08630161942
tp13
a(F-2.05002783229
F3.29674504989
tp14
a(F-2.32133055409
F2.44220452537
tp15
a(F-2.5947430146
F3.4323518722
tp16
a(F-2.26328169772
F3.03763307351
tp17
a(F-1.54722706431
F3.74056733465
tp18
a(F-3.23790304789
F3.08335065578
tp19
a(F-1.44120255197
F0.94449814085
tp20
a(F-2.41822502895
F2.97863373421
tp21
a(F-2.17945122448
F3.59762255524
tp22
a(F-1.9824210188
F3.21222574075
tp23
a(F-2.24008699069
F3.44918387207
tp24
a(F-2.45982206487
F2.70643726049
tp25
a(F-1.70416978549
F1.81595879757
tp26
a(F-1.9960379954
F3.30568582039
tp27
a(F-1.87825035603
F3.34172809293
tp28
a(F-2.12501767707
F2.84134839171
tp29
a(F-2.62514357667
F3.31610966065
tp30
a(F-1.51110470191
F3.31853892015
tp31
a(F-2.28529955591
F3.32939903257
tp32
a(F-1.64712329408
F1.90130853908
tp33
a(F-2.09061868532
F3.08243319198
tp34
a(F-0.603245104971
F3.78733342563
tp35
a(F-1.70365418183
F3.35613646508
tp36
a(F-1.83200288304
F3.50410611394
tp37
a(F-2.4932352845
F2.94253435119
tp38
a(F-1.30641302806
F1.39084618867
tp39
a(F-1.84489972798
F2.69777594335
tp40
a(F-2.50164670305
F4.00947441147
tp41
a(F-2.02368995626
F3.23750515098
tp42
a(F-1.88434130678
F3.68098786423
tp43
a(F-2.0172154175
F1.77297662715
tp44
a(F-2.03229592628
F4.04482208264
tp45
a(F-1.7398309643
F2.55073433226
tp46
a(F-1.86814505083
F3.2025157336
tp47
a(F-2.29495749326
F2.77060964639
tp48
a(F-2.64092641636
F3.42133182435
tp49
a(F-2.23159576561
F3.4925437829
tp50
a(F-4.26817576766
F3.3096183232
tp51
a(F-2.95458149372
F2.64752624616
tp52
a(F-2.32623109068
F2.86599785869
tp53
a(F-1.92314506327
F3.13837373871
tp54
a(F-2.02296862844
F1.57107418727
tp55
a(F-1.87000762403
F2.9449006937
tp56
a(F-1.81786577333
F3.30438062175
tp57
a(F-1.69463723176
F3.31283244655
tp58
a(F-3.91495552764
F4.53367670931
tp59
a(F-2.00942612919
F3.27767460639
tp60
a(F-4.00038819732
F3.12984025937
tp61
a(F-1.99205457355
F2.88091283295
tp62
a(F-2.4744163034
F2.2823990939
tp63
a(F-2.00868453872
F3.00132614276
tp64
a(F-2.31678621601
F3.68747066898
tp65
a(F-3.40219642527
F3.94303824112
tp66
a(F-1.99549381854
F4.42875827517
tp67
a(F-2.32093288765
F4.23685787972
tp68
a(F-2.19364479202
F4.67063896788
tp69
a(F-1.43645549395
F4.79769449413
tp70
a(F-2.23110196925
F3.56851301509
tp71
a(F-2.7300384807
F3.8210225953
tp72
a(F-3.39632926439
F4.38926088882
tp73
a(F-0.598269407319
F4.20047932487
tp74
a(F-0.85988843056
F4.57070134152
tp75
a(F-2.58939796341
F3.67160859905
tp76
a(F-2.06949313181
F3.9281938321
tp77
a(F-1.75706000151
F3.94975933185
tp78
a(F-3.47936763781
F4.19297652447
tp79
a(F-2.35868285266
F3.87325344467
tp80
a(F-2.21137690698
F3.76346184601
tp81
a(F-2.0957207446
F4.86490063191
tp82
a(F-1.69803697987
F4.81704379109
tp83
a(F-2.74866351614
F3.7753541174
tp84
a(F-1.91632516769
F4.00128385943
tp85
a(F-1.67304403881
F4.33947839252
tp86
a(F-3.16800838015
F4.29677663465
tp87
a(F-1.52926426387
F4.40660259716
tp88
a(F-1.25295672949
F3.31656970196
tp89
a(F-1.31731026242
F4.41646342114
tp90
a(F-1.28170661312
F1.37158713724
tp91
a(F-2.73082848483
F4.88650680547
tp92
a(F-3.61706152115
F3.59432924159
tp93
a(F-1.77467592059
F4.75732779569
tp94
a(F-2.43043935161
F3.77974167305
tp95
a(F-2.3038931876
F4.77174873728
tp96
a(F-4.05922725672
F4.78210974672
tp97
a(F-2.14961710453
F4.4780056372
tp98
a(F-1.20473862379
F4.47532167479
tp99
a(F-1.75569518733
F4.14960099356
tp100
a(F-0.123372981879
F3.81804401662
tp101
a(F-1.81035142339
F4.60676838171
tp102
a(F-1.33243210806
F4.04641003772
tp103
a(F-1.73607189924
F4.24701612226
tp104
a(F-1.72058297287
F3.52146182628
tp105
a(F-2.47204088302
F4.12379990096
tp106
a(F-2.04074485469
F4.59234412769
tp107
a(F-3.31446439936
F3.85268647719
tp108
a(F-0.575947523078
F4.97889161524
tp109
a(F-2.47235736847
F4.6745182006
tp110
a(F-1.34531422874
F4.18335345734
tp111
a(F-1.2579863558
F4.67601290027
tp112
a(F-2.63541182891
F4.21084719351
tp113
a(F-1.47995091413
F4.64547323074
tp114
a(F-1.94812577705
F3.92948993842
tp115
a(F-1.83604417705
F3.82197146393
tp116
a(F-1.71303504585
F3.79000749856
tp117
a(F-1.0882595391
F4.32552569631
tp118
a(F-2.82547805198
F4.68353406257
tp119
a(F-2.26563070482
F4.22756554569
tp120
a(F-0.49570433117
F4.94596389257
tp121
a(F-1.55014942125
F3.55493060487
tp122
a(F-1.92713360671
F4.24138812323
tp123
a(F-1.45308250239
F4.3854828563
tp124
a(F-1.47705364876
F3.63203263235
tp125
a(F-1.81743365927
F3.66112935208
tp126
a(F-3.10560915773
F4.26644061601
tp127
a(F-1.32928104484
F2.88999589781
tp128
a(F-2.22647387418
F4.28370365913
tp129
a(F-2.30808210579
F3.97372574177
tp130
a(F-2.19070453908
F4.02990193131
tp131
a(F-2.07340236746
F4.39504667057
tp132
a(F-2.4760985187
F3.94417396778
tp133
a(F-2.97629345389
F4.8376032893
tp134
a(F-1.32332540973
F4.34268497581
tp135
a(F-1.20168147764
F4.75490234215
tp136
a(F-2.02859899676
F3.92916052533
tp137
a(F-1.15007733803
F4.61821901314
tp138
a(F-1.44628221741
F3.66005404483
tp139
a(F-2.56789238174
F3.44621073208
tp140
a(F-1.80195800202
F1.40302643973
tp141
a(F-1.29665433331
F5.00471896015
tp142
a(F0.442440900307
F4.03440544114
tp143
a(F-1.12473599242
F4.40785671718
tp144
a(F-0.697838453733
F4.74938610578
tp145
a(F-1.51812710133
F4.53045974279
tp146
a(F-0.283883853764
F5.30925781252
tp147
a(F-0.742668179031
F4.92131529244
tp148
a(F-0.576693525512
F6.49468757274
tp149
a(F-1.17449764457
F5.10749367653
tp150
a(F-1.54325919085
F2.31874923856
tp151
a(F-2.39052854074
F5.00351628793
tp152
a(F-2.06077682963
F5.06080430205
tp153
a(F-1.83878221378
F4.9500835198
tp154
a(F-0.227317521515
F4.93034688979
tp155
a(F-1.789605371
F3.91914540698
tp156
a(F-1.9357749126
F5.01870843082
tp157
a(F-3.09274971841
F4.15980697653
tp158
a(F-2.19176087253
F5.12376904885
tp159
a(F-0.707233537882
F4.58453422946
tp160
a(F-1.55723852274
F5.28945208926
tp161
a(F-1.49057728524
F1.50905397833
tp162
a(F-0.676297233209
F4.22964456837
tp163
a(F-0.679043742627
F4.22747902721
tp164
a(F-1.24822059201
F4.2903892766
tp165
a(F-1.38242780193
F3.99105535271
tp166
a(F-4.6099965411
F4.4754782228
tp167
a(F0.0144988670207
F5.10983217012
tp168
a(F-0.31671939567
F5.5432994852
tp169
a(F-1.39925398418
F4.89477069877
tp170
a(F0.286785943274
F4.31150109764
tp171
a(F-2.88730499878
F5.04355972585
tp172
a(F-0.378073916263
F4.96575777115
tp173
a(F-0.657623073725
F5.07250174976
tp174
a(F-1.80363716567
F2.41018527331
tp175
a(F-0.406467252243
F4.46060417889
tp176
a(F-0.780850525041
F5.05845992795
tp177
a(F-0.916215150791
F5.03799738889
tp178
a(F-1.07022354563
F5.07146881749
tp179
a(F0.162139049474
F5.16651046976
tp180
a(F-0.552549305483
F5.20389766759
tp181
a(F-0.482246260341
F5.0247977185
tp182
a(F-1.16167040218
F4.82314795264
tp183
a(F-1.83666667557
F5.47951043346
tp184
a(F-1.28416165586
F4.51984748095
tp185
a(F-3.22933078326
F4.96088232684
tp186
a(F-1.07736635199
F5.45449384826
tp187
a(F0.4054232069
F5.78524147155
tp188
a(F-1.2083103416
F5.00242852379
tp189
a(F-0.263830699311
F5.91719251254
tp190
a(F-1.62640909812
F2.31321712822
tp191
a(F-2.64303493287
F5.14305673542
tp192
a(F-3.17214264816
F4.97935324316
tp193
a(F-0.880892987737
F4.37950183744
tp194
a(F-0.607825972185
F5.4848346402
tp195
a(F-1.93138678654
F5.43648735194
tp196
a(F-1.56233487692
F4.29258621232
tp197
a(F-0.401510428953
F4.41484456437
tp198
a(F-0.257496423062
F4.83128706053
tp199
a(F-1.30135744427
F5.19258565028
tp200
a(F-1.285422076
F5.47194827444
tp201
a(F-0.330293993857
F4.80513729795
tp202
a(F-1.08973673237
F4.96985445296
tp203
a(F-1.48838261654
F4.85987406956
tp204
a(F-0.290919830586
F5.5439409028
tp205
a(F-2.10566714406
F1.76176173066
tp206
a(F-1.90637371106
F5.14261944612
tp207
a(F-3.30085559779
F4.15449736966
tp208
a(F-2.07854191807
F4.54181006155
tp209
a(F-0.177359586964
F4.51221029523
tp210
a(F-0.191268700634
F4.42466990076
tp211
a(F-0.64961376363
F4.48969407744
tp212
a(F-0.774901104682
F5.41351507707
tp213
a(F-1.1438949268
F4.59496873865
tp214
a(F-1.79168079848
F1.1039839522
tp215
a(F-1.46629738143
F4.33614021441
tp216
a(F-0.300270032092
F4.79685785138
tp217
a(F-1.05624484958
F5.85509376276
tp218
a(F-0.977942172017
F5.2077056726
tp219
a(F-2.79652771659
F4.86211342989
tp220
a(F-0.785326495619
F4.88664175973
tp221
a(F-0.535594859045
F4.94312465261
tp222
a(F0.21126572773
F4.5564547023
tp223
a(F-2.21638222788
F1.38496733658
tp224
a(F-2.38326218605
F2.04551714187
tp225
a(F-1.11772548264
F2.33623706097
tp226
a(F-2.01609806758
F1.75403765057
tp227
a(F-1.70187465859
F1.59976565867
tp228
a(F-2.01712671897
F1.70950997417
tp229
a(F-1.42792130631
F1.09576933194
tp230
a(F-2.116834192
F1.69285193751
tp231
a(F-2.252997906
F1.55132584142
tp232
a(F-2.11842231142
F2.16014105481
tp233
a(F-1.63652536825
F1.29172194692
tp234
a(F-2.97597733103
F1.1393339525
tp235
a(F-1.69275342483
F1.66863503175
tp236
a(F-2.02409913029
F1.22670155628
tp237
a(F-1.526842692
F1.51850771431
tp238
a(F-2.42540280038
F2.00199054168
tp239
a(F-1.69287002844
F1.67473866571
tp240
a(F-1.5888334253
F1.55352676546
tp241
a(F-1.84035709047
F2.26099900864
tp242
a(F-1.97601471619
F1.17245474586
tp243
a(F-1.56502727066
F1.69067883182
tp244
a(F-1.68950316747
F1.6369047002
tp245
a(F-1.89975879359
F1.31528206046
tp246
a(F-2.20222732837
F2.08583145831
tp247
a(F-1.85666942525
F1.76568831253
tp248
a(F-1.62782375024
F1.7300216752
tp249
a(F-1.93154980851
F1.52070029714
tp250
a.