(lp0
(F-0.261108536129
F-2.14667497103
tp1
a(F0.0225185305442
F-2.17169633565
tp2
a(F0.0568445437488
F-2.11165725863
tp3
a(F1.03381523762
F-4.12734108112
tp4
a(F1.70598297777
F-2.33925904909
tp5
a(F1.37696783816
F-3.54969642751
tp6
a(F3.09024588539
F-2.19196477431
tp7
a(F3.36144035435
F-1.8300888424
tp8
a(F3.3356132407
F-1.44175235944
tp9
a(F1.03316809344
F-2.32613034745
tp10
a(F4.03988597958
F-2.58096738007
tp11
a(F1.27688728397
F-2.33506320098
tp12
a(F0.964246260697
F-2.41076298916
tp13
a(F4.26257396181
F-2.05002783229
tp14
a(F1.8514633356
F-2.32133055409
tp15
a(F1.70539644226
F-2.5947430146
tp16
a(F1.94597375756
F-2.26328169772
tp17
a(F3.11405922712
F-1.54722706431
tp18
a(F1.69925737058
F-3.23790304789
tp19
a(F1.52196723688
F-1.44120255197
tp20
a(F2.33207053307
F-2.41822502895
tp21
a(F4.57244067211
F-2.17945122448
tp22
a(F1.49981574576
F-1.9824210188
tp23
a(F1.78365983057
F-2.24008699069
tp24
a(F1.23796478748
F-2.45982206487
tp25
a(F0.428109791312
F-1.70416978549
tp26
a(F2.73638901178
F-1.9960379954
tp27
a(F3.35010066781
F-1.87825035603
tp28
a(F1.55246708343
F-2.12501767707
tp29
a(F2.2677862411
F-2.62514357667
tp30
a(F3.20450300287
F-1.51110470191
tp31
a(F3.00899116597
F-2.28529955591
tp32
a(F0.720255308719
F-1.64712329408
tp33
a(F3.38497997952
F-2.09061868532
tp34
a(F0.970158538645
F-0.603245104971
tp35
a(F3.85800131771
F-1.70365418183
tp36
a(F3.7797379294
F-1.83200288304
tp37
a(F1.77329770321
F-2.4932352845
tp38
a(F1.24732393911
F-1.30641302806
tp39
a(F1.4135539682
F-1.84489972798
tp40
a(F2.31146358546
F-2.50164670305
tp41
a(F2.9110201845
F-2.02368995626
tp42
a(F3.2974884325
F-1.88434130678
tp43
a(F2.08967495768
F-2.0172154175
tp44
a(F3.56870245265
F-2.03229592628
tp45
a(F0.80267918892
F-1.7398309643
tp46
a(F2.62283573691
F-1.86814505083
tp47
a(F3.93174838259
F-2.29495749326
tp48
a(F2.83332378052
F-2.64092641636
tp49
a(F2.86558323361
F-2.23159576561
tp50
a(F3.46959750253
F-4.26817576766
tp51
a(F2.76950871695
F-2.95458149372
tp52
a(F2.99819891258
F-2.32623109068
tp53
a(F2.16809475546
F-1.92314506327
tp54
a(F0.870330194724
F-2.02296862844
tp55
a(F1.66934405953
F-1.87000762403
tp56
a(F0.557826029741
F-1.81786577333
tp57
a(F2.7549430851
F-1.69463723176
tp58
a(F5.4498000402
F-3.91495552764
tp59
a(F3.41847115718
F-2.00942612919
tp60
a(F4.01067651115
F-4.00038819732
tp61
a(F0.930076656962
F-1.99205457355
tp62
a(F0.989842670384
F-2.4744163034
tp63
a(F3.31418514337
F-2.00868453872
tp64
a(F2.57882602242
F-2.31678621601
tp65
a(F7.71087488277
F-3.40219642527
tp66
a(F4.1955720553
F-1.99549381854
tp67
a(F5.99991169569
F-2.32093288765
tp68
a(F7.02019021656
F-2.19364479202
tp69
a(F4.66448764493
F-1.43645549395
tp70
a(F6.06317932611
F-2.23110196925
tp71
a(F6.13757158005
F-2.7300384807
tp72
a(F7.94067949587
F-3.39632926439
tp73
a(F5.59625795723
F-0.598269407319
tp74
a(F4.9131395991
F-0.85988843056
tp75
a(F5.96827788048
F-2.58939796341
tp76
a(F5.13123305316
F-2.06949313181
tp77
a(F6.06976807502
F-1.75706000151
tp78
a(F6.37662390303
F-3.47936763781
tp79
a(F6.30350247603
F-2.35868285266
tp80
a(F4.84934408672
F-2.21137690698
tp81
a(F4.66902351954
F-2.0957207446
tp82
a(F6.39650745684
F-1.69803697987
tp83
a(F3.79393208876
F-2.74866351614
tp84
a(F5.60157587919
F-1.91632516769
tp85
a(F6.19401584737
F-1.67304403881
tp86
a(F4.49400132315
F-3.16800838015
tp87
a(F5.45372982813
F-1.52926426387
tp88
a(F3.48854259952
F-1.25295672949
tp89
a(F3.76411653363
F-1.31731026242
tp90
a(F1.01048676524
F-1.28170661312
tp91
a(F7.29887278887
F-2.73082848483
tp92
a(F6.20414336052
F-3.61706152115
tp93
a(F5.57369589125
F-1.77467592059
tp94
a(F4.92864368776
F-2.43043935161
tp95
a(F6.69681363832
F-2.3038931876
tp96
a(F6.41392756151
F-4.05922725672
tp97
a(F6.8963139167
F-2.14961710453
tp98
a(F2.68295562676
F-1.20473862379
tp99
a(F5.60112620197
F-1.75569518733
tp100
a(F3.85596799461
F-0.123372981879
tp101
a(F6.46607056841
F-1.81035142339
tp102
a(F4.39423163278
F-1.33243210806
tp103
a(F4.52520501232
F-1.73607189924
tp104
a(F4.75626090117
F-1.72058297287
tp105
a(F4.63367497943
F-2.47204088302
tp106
a(F6.35683810514
F-2.04074485469
tp107
a(F7.47223313465
F-3.31446439936
tp108
a(F4.8957585968
F-0.575947523078
tp109
a(F3.71340076314
F-2.47235736847
tp110
a(F4.17062474492
F-1.34531422874
tp111
a(F4.52481398864
F-1.2579863558
tp112
a(F7.64702071684
F-2.63541182891
tp113
a(F3.80839996469
F-1.47995091413
tp114
a(F5.51228562328
F-1.94812577705
tp115
a(F5.84315030486
F-1.83604417705
tp116
a(F4.10252797212
F-1.71303504585
tp117
a(F5.94915682283
F-1.0882595391
tp118
a(F4.55895035537
F-2.82547805198
tp119
a(F5.66460889541
F-2.26563070482
tp120
a(F5.02362333813
F-0.49570433117
tp121
a(F4.33628192432
F-1.55014942125
tp122
a(F5.44665229963
F-1.92713360671
tp123
a(F2.5740555336
F-1.45308250239
tp124
a(F3.47149396734
F-1.47705364876
tp125
a(F6.11039543472
F-1.81743365927
tp126
a(F7.20692357198
F-3.10560915773
tp127
a(F4.76003427962
F-1.32928104484
tp128
a(F5.10395915191
F-2.22647387418
tp129
a(F4.4893872438
F-2.30808210579
tp130
a(F4.94805801317
F-2.19070453908
tp131
a(F6.93942427673
F-2.07340236746
tp132
a(F5.52362530982
F-2.4760985187
tp133
a(F5.67655466864
F-2.97629345389
tp134
a(F4.33309508138
F-1.32332540973
tp135
a(F5.44942856771
F-1.20168147764
tp136
a(F5.00250805974
F-2.02859899676
tp137
a(F3.56842873608
F-1.15007733803
tp138
a(F5.65872398912
F-1.44628221741
tp139
a(F6.55205667428
F-2.56789238174
tp140
a(F1.4747765448
F-1.80195800202
tp141
a(F5.03549090663
F-1.29665433331
tp142
a(F5.5638029923
F0.442440900307
tp143
a(F5.40303360882
F-1.12473599242
tp144
a(F3.90631229261
F-0.697838453733
tp145
a(F5.92012331505
F-1.51812710133
tp146
a(F5.42651458043
F-0.283883853764
tp147
a(F6.62201080952
F-0.742668179031
tp148
a(F6.51492897645
F-0.576693525512
tp149
a(F5.67260532954
F-1.17449764457
tp150
a(F2.79793613804
F-1.54325919085
tp151
a(F7.63875056614
F-2.39052854074
tp152
a(F7.36032215921
F-2.06077682963
tp153
a(F6.73038302072
F-1.83878221378
tp154
a(F6.27094975519
F-0.227317521515
tp155
a(F5.76869939737
F-1.789605371
tp156
a(F5.99334249797
F-1.9357749126
tp157
a(F5.0340832214
F-3.09274971841
tp158
a(F7.65603381252
F-2.19176087253
tp159
a(F6.21560035416
F-0.707233537882
tp160
a(F6.20748661293
F-1.55723852274
tp161
a(F0.475228144005
F-1.49057728524
tp162
a(F5.42141172149
F-0.676297233209
tp163
a(F4.70009035043
F-0.679043742627
tp164
a(F5.53895343783
F-1.24822059201
tp165
a(F5.94675202724
F-1.38242780193
tp166
a(F7.76831626045
F-4.6099965411
tp167
a(F2.9828316822
F0.0144988670207
tp168
a(F6.32543890413
F-0.31671939567
tp169
a(F5.45668205686
F-1.39925398418
tp170
a(F6.58930167921
F0.286785943274
tp171
a(F6.98269104624
F-2.88730499878
tp172
a(F5.86807806407
F-0.378073916263
tp173
a(F5.83321830355
F-0.657623073725
tp174
a(F2.49065018398
F-1.80363716567
tp175
a(F5.45261541066
F-0.406467252243
tp176
a(F3.86930190189
F-0.780850525041
tp177
a(F6.24103644414
F-0.916215150791
tp178
a(F5.83392214616
F-1.07022354563
tp179
a(F5.32846539422
F0.162139049474
tp180
a(F6.58887155317
F-0.552549305483
tp181
a(F6.728603863
F-0.482246260341
tp182
a(F6.51758793744
F-1.16167040218
tp183
a(F6.55006245354
F-1.83666667557
tp184
a(F5.86766748921
F-1.28416165586
tp185
a(F7.37897398845
F-3.22933078326
tp186
a(F4.37540384289
F-1.07736635199
tp187
a(F6.07485138277
F0.4054232069
tp188
a(F3.55356983648
F-1.2083103416
tp189
a(F5.06820003694
F-0.263830699311
tp190
a(F1.17652910297
F-1.62640909812
tp191
a(F7.6290922814
F-2.64303493287
tp192
a(F8.04154405252
F-3.17214264816
tp193
a(F6.01095811448
F-0.880892987737
tp194
a(F6.87555055962
F-0.607825972185
tp195
a(F6.11133389154
F-1.93138678654
tp196
a(F6.35408138824
F-1.56233487692
tp197
a(F5.25282186453
F-0.401510428953
tp198
a(F4.5927152496
F-0.257496423062
tp199
a(F7.52433703919
F-1.30135744427
tp200
a(F6.76135209568
F-1.285422076
tp201
a(F7.19106756201
F-0.330293993857
tp202
a(F5.84725605344
F-1.08973673237
tp203
a(F7.28006455016
F-1.48838261654
tp204
a(F4.91204473281
F-0.290919830586
tp205
a(F0.702418763839
F-2.10566714406
tp206
a(F8.93493539124
F-1.90637371106
tp207
a(F6.09905574818
F-3.30085559779
tp208
a(F7.86781223425
F-2.07854191807
tp209
a(F4.0618028565
F-0.177359586964
tp210
a(F6.0652322004
F-0.191268700634
tp211
a(F5.40319001829
F-0.64961376363
tp212
a(F5.46856917655
F-0.774901104682
tp213
a(F6.39515842517
F-1.1438949268
tp214
a(F1.32818763485
F-1.79168079848
tp215
a(F6.45365556677
F-1.46629738143
tp216
a(F5.24025045341
F-0.300270032092
tp217
a(F5.49981196808
F-1.05624484958
tp218
a(F5.82121387676
F-0.977942172017
tp219
a(F8.70114233667
F-2.79652771659
tp220
a(F5.20241891297
F-0.785326495619
tp221
a(F5.4022124591
F-0.535594859045
tp222
a(F3.71183666845
F0.21126572773
tp223
a(F0.318791302828
F-2.21638222788
tp224
a(F0.556377287029
F-2.38326218605
tp225
a(F0.322977211256
F-1.11772548264
tp226
a(F0.450617113976
F-2.01609806758
tp227
a(F0.849121070657
F-1.70187465859
tp228
a(F0.137092377205
F-2.01712671897
tp229
a(F0.019873255391
F-1.42792130631
tp230
a(F1.13515293292
F-2.116834192
tp231
a(F1.64777910392
F-2.252997906
tp232
a(F1.16408868479
F-2.11842231142
tp233
a(F0.261042971563
F-1.63652536825
tp234
a(F0.589475485898
F-2.97597733103
tp235
a(F0.885640726672
F-1.69275342483
tp236
a(F1.74215266759
F-2.02409913029
tp237
a(F1.06234236974
F-1.526842692
tp238
a(F1.46572434675
F-2.42540280038
tp239
a(F1.06700337194
F-1.69287002844
tp240
a(F0.5219847998
F-1.5888334253
tp241
a(F1.55328823315
F-1.84035709047
tp242
a(F3.48756504034
F-1.97601471619
tp243
a(F0.87715551295
F-1.56502727066
tp244
a(F1.22636507019
F-1.68950316747
tp245
a(F0.950667963625
F-1.89975879359
tp246
a(F0.451012047887
F-2.20222732837
tp247
a(F0.603026411314
F-1.85666942525
tp248
a(F0.530139598517
F-1.62782375024
tp249
a(F0.952292666989
F-1.93154980851
tp250
a.