(lp0
(lp1
F-0.261108536129
aa(lp2
F0.0225185305442
aa(lp3
F0.0568445437488
aa(lp4
F1.03381523762
aa(lp5
F1.70598297777
aa(lp6
F1.37696783816
aa(lp7
F1.81752248072
aa(lp8
F3.09024588539
aa(lp9
F3.36144035435
aa(lp10
F4.52755115436
aa(lp11
F2.95847090732
aa(lp12
F3.3356132407
aa(lp13
F1.03316809344
aa(lp14
F-0.0178585740124
aa(lp15
F4.18763427473
aa(lp16
F4.03988597958
aa(lp17
F1.27688728397
aa(lp18
F0.964246260697
aa(lp19
F4.26257396181
aa(lp20
F1.8514633356
aa(lp21
F1.70539644226
aa(lp22
F1.94597375756
aa(lp23
F3.11405922712
aa(lp24
F1.69925737058
aa(lp25
F1.52196723688
aa(lp26
F0.640300743019
aa(lp27
F2.33207053307
aa(lp28
F4.57244067211
aa(lp29
F1.49981574576
aa(lp30
F4.7106675408
aa(lp31
F1.78365983057
aa(lp32
F1.90331307475
aa(lp33
F5.02448359021
aa(lp34
F1.23796478748
aa(lp35
F1.56912469194
aa(lp36
F0.428109791312
aa(lp37
F3.75295280775
aa(lp38
F2.13642183789
aa(lp39
F2.73638901178
aa(lp40
F3.35010066781
aa(lp41
F1.55246708343
aa(lp42
F2.58111351092
aa(lp43
F2.2677862411
aa(lp44
F3.74943359468
aa(lp45
F3.20450300287
aa(lp46
F3.00899116597
aa(lp47
F0.720255308719
aa(lp48
F2.40702977134
aa(lp49
F2.92478421782
aa(lp50
F2.80571750915
aa(lp51
F3.38497997952
aa(lp52
F0.970158538645
aa(lp53
F4.21301171116
aa(lp54
F3.02678274313
aa(lp55
F3.85800131771
aa(lp56
F3.7797379294
aa(lp57
F1.77329770321
aa(lp58
F1.24732393911
aa(lp59
F1.4135539682
aa(lp60
F3.51974628869
aa(lp61
F2.31146358546
aa(lp62
F3.7624742342
aa(lp63
F2.9110201845
aa(lp64
F0.675680565024
aa(lp65
F1.92098734481
aa(lp66
F0.343955631355
aa(lp67
F3.2974884325
aa(lp68
F2.80849377723
aa(lp69
F2.08967495768
aa(lp70
F3.92521828724
aa(lp71
F3.56870245265
aa(lp72
F3.99992336012
aa(lp73
F0.80267918892
aa(lp74
F2.44130299635
aa(lp75
F2.62283573691
aa(lp76
F2.44454849284
aa(lp77
F3.93174838259
aa(lp78
F2.83332378052
aa(lp79
F2.86558323361
aa(lp80
F-0.191275618225
aa(lp81
F3.09224010612
aa(lp82
F3.46959750253
aa(lp83
F3.85371960848
aa(lp84
F3.73987306586
aa(lp85
F3.62762972029
aa(lp86
F2.66991498724
aa(lp87
F3.84433504031
aa(lp88
F2.76950871695
aa(lp89
F2.99819891258
aa(lp90
F2.16809475546
aa(lp91
F0.870330194724
aa(lp92
F0.85959463976
aa(lp93
F1.94691221438
aa(lp94
F1.66934405953
aa(lp95
F4.37145450378
aa(lp96
F0.557826029741
aa(lp97
F3.51376362648
aa(lp98
F2.44840007603
aa(lp99
F2.7549430851
aa(lp100
F3.49313712769
aa(lp101
F3.04531726527
aa(lp102
F0.81953230926
aa(lp103
F5.4498000402
aa(lp104
F3.41847115718
aa(lp105
F4.01067651115
aa(lp106
F2.27028879261
aa(lp107
F0.930076656962
aa(lp108
F1.42147415271
aa(lp109
F0.989842670384
aa(lp110
F2.60455538016
aa(lp111
F3.31418514337
aa(lp112
F2.57882602242
aa(lp113
F-0.473114944212
aa(lp114
F1.55582988703
aa(lp115
F7.71087488277
aa(lp116
F4.1955720553
aa(lp117
F5.99991169569
aa(lp118
F7.02019021656
aa(lp119
F2.68762835966
aa(lp120
F4.66448764493
aa(lp121
F6.06317932611
aa(lp122
F6.13757158005
aa(lp123
F7.94067949587
aa(lp124
F5.59625795723
aa(lp125
F0.379110614748
aa(lp126
F5.23778700427
aa(lp127
F6.37267456392
aa(lp128
F4.9131395991
aa(lp129
F5.96827788048
aa(lp130
F5.13123305316
aa(lp131
F4.84038964459
aa(lp132
F6.06976807502
aa(lp133
F6.37662390303
aa(lp134
F6.30350247603
aa(lp135
F4.84934408672
aa(lp136
F0.206031806014
aa(lp137
F4.66902351954
aa(lp138
F6.39650745684
aa(lp139
F3.79393208876
aa(lp140
F5.60157587919
aa(lp141
F5.81177065504
aa(lp142
F6.19401584737
aa(lp143
F4.49400132315
aa(lp144
F5.45372982813
aa(lp145
F3.48854259952
aa(lp146
F3.76411653363
aa(lp147
F1.01048676524
aa(lp148
F7.29887278887
aa(lp149
F6.20414336052
aa(lp150
F5.57369589125
aa(lp151
F4.92864368776
aa(lp152
F6.69681363832
aa(lp153
F6.41392756151
aa(lp154
F4.40083993287
aa(lp155
F4.39423163278
aa(lp156
F6.8963139167
aa(lp157
F6.04665857589
aa(lp158
F1.47086826318
aa(lp159
F2.68295562676
aa(lp160
F5.60112620197
aa(lp161
F3.85596799461
aa(lp162
F6.46607056841
aa(lp163
F4.39423163278
aa(lp164
F4.52520501232
aa(lp165
F4.86205235611
aa(lp166
F6.64359531632
aa(lp167
F4.75626090117
aa(lp168
F4.63367497943
aa(lp169
F0.781818075922
aa(lp170
F6.35683810514
aa(lp171
F5.60362875348
aa(lp172
F5.55441842413
aa(lp173
F7.47223313465
aa(lp174
F4.8957585968
aa(lp175
F3.71340076314
aa(lp176
F4.17062474492
aa(lp177
F4.52481398864
aa(lp178
F7.64702071684
aa(lp179
F3.80839996469
aa(lp180
F0.75819438067
aa(lp181
F4.86627541179
aa(lp182
F5.91687781856
aa(lp183
F5.51228562328
aa(lp184
F5.84315030486
aa(lp185
F4.10252797212
aa(lp186
F5.94915682283
aa(lp187
F4.55895035537
aa(lp188
F4.704196099
aa(lp189
F5.68480526816
aa(lp190
F5.66460889541
aa(lp191
F0.580769343801
aa(lp192
F5.02362333813
aa(lp193
F4.33628192432
aa(lp194
F5.58824197191
aa(lp195
F5.44665229963
aa(lp196
F2.5740555336
aa(lp197
F3.47149396734
aa(lp198
F6.11039543472
aa(lp199
F7.20692357198
aa(lp200
F4.76003427962
aa(lp201
F5.10395915191
aa(lp202
F0.996468566537
aa(lp203
F4.4893872438
aa(lp204
F5.36330560356
aa(lp205
F4.94805801317
aa(lp206
F4.25672815789
aa(lp207
F6.93942427673
aa(lp208
F4.98768826251
aa(lp209
F7.60406676627
aa(lp210
F5.52362530982
aa(lp211
F4.70128297263
aa(lp212
F4.8449255192
aa(lp213
F-0.443885709533
aa(lp214
F5.67655466864
aa(lp215
F4.33309508138
aa(lp216
F4.24593590449
aa(lp217
F5.5252089557
aa(lp218
F5.44942856771
aa(lp219
F5.00250805974
aa(lp220
F3.56842873608
aa(lp221
F5.65872398912
aa(lp222
F6.55205667428
aa(lp223
F4.94754968239
aa(lp224
F0.974021852542
aa(lp225
F1.4747765448
aa(lp226
F5.03549090663
aa(lp227
F5.5638029923
aa(lp228
F5.0761573687
aa(lp229
F5.40303360882
aa(lp230
F3.90631229261
aa(lp231
F5.92012331505
aa(lp232
F5.42651458043
aa(lp233
F6.62201080952
aa(lp234
F6.51492897645
aa(lp235
F5.67260532954
aa(lp236
F2.79793613804
aa(lp237
F7.63875056614
aa(lp238
F7.36032215921
aa(lp239
F6.73038302072
aa(lp240
F6.27094975519
aa(lp241
F5.76869939737
aa(lp242
F5.99334249797
aa(lp243
F5.0340832214
aa(lp244
F7.65603381252
aa(lp245
F6.21560035416
aa(lp246
F6.20748661293
aa(lp247
F0.475228144005
aa(lp248
F5.42141172149
aa(lp249
F4.70009035043
aa(lp250
F5.51617630883
aa(lp251
F5.53895343783
aa(lp252
F5.94675202724
aa(lp253
F5.38160551149
aa(lp254
F7.76831626045
aa(lp255
F2.9828316822
aa(lp256
F6.32543890413
aa(lp257
F5.45668205686
aa(lp258
F1.40871114
aa(lp259
F6.58930167921
aa(lp260
F7.03197958032
aa(lp261
F7.33549215592
aa(lp262
F6.98269104624
aa(lp263
F5.85396210944
aa(lp264
F5.86807806407
aa(lp265
F5.83321830355
aa(lp266
F6.1161825851
aa(lp267
F5.67438448725
aa(lp268
F5.18220298904
aa(lp269
F2.49065018398
aa(lp270
F5.45261541066
aa(lp271
F3.86930190189
aa(lp272
F6.24103644414
aa(lp273
F5.83392214616
aa(lp274
F5.32846539422
aa(lp275
F6.58887155317
aa(lp276
F6.728603863
aa(lp277
F6.51758793744
aa(lp278
F7.10052603034
aa(lp279
F6.75012971624
aa(lp280
F0.427102905352
aa(lp281
F6.55006245354
aa(lp282
F6.21253081832
aa(lp283
F5.86766748921
aa(lp284
F7.37897398845
aa(lp285
F4.37540384289
aa(lp286
F6.07485138277
aa(lp287
F3.55356983648
aa(lp288
F5.06820003694
aa(lp289
F8.35109794389
aa(lp290
F6.21290229081
aa(lp291
F1.17652910297
aa(lp292
F7.6290922814
aa(lp293
F8.04154405252
aa(lp294
F6.01095811448
aa(lp295
F6.60754293359
aa(lp296
F5.51115165462
aa(lp297
F6.87555055962
aa(lp298
F6.3486070568
aa(lp299
F6.11133389154
aa(lp300
F6.35408138824
aa(lp301
F5.25282186453
aa(lp302
F0.226617247321
aa(lp303
F4.5927152496
aa(lp304
F7.52433703919
aa(lp305
F6.76135209568
aa(lp306
F7.19106756201
aa(lp307
F5.84725605344
aa(lp308
F7.28006455016
aa(lp309
F7.45950531407
aa(lp310
F6.37990850189
aa(lp311
F6.75351207102
aa(lp312
F4.91204473281
aa(lp313
F0.702418763839
aa(lp314
F8.93493539124
aa(lp315
F6.09905574818
aa(lp316
F7.86781223425
aa(lp317
F4.0618028565
aa(lp318
F6.72940546153
aa(lp319
F6.0652322004
aa(lp320
F6.30109768044
aa(lp321
F5.40319001829
aa(lp322
F5.46856917655
aa(lp323
F6.39515842517
aa(lp324
F1.32818763485
aa(lp325
F7.08777865857
aa(lp326
F6.45365556677
aa(lp327
F6.68123134492
aa(lp328
F5.24025045341
aa(lp329
F5.49981196808
aa(lp330
F5.82121387676
aa(lp331
F8.70114233667
aa(lp332
F5.20241891297
aa(lp333
F5.4022124591
aa(lp334
F3.71183666845
aa(lp335
F0.59514337405
aa(lp336
F1.33252213227
aa(lp337
F6.69237551962
aa(lp338
F4.32926304938
aa(lp339
F5.63401129293
aa(lp340
F4.98131457662
aa(lp341
F6.22228685898
aa(lp342
F4.91992385984
aa(lp343
F3.52262031269
aa(lp344
F6.62932295222
aa(lp345
F7.0183328541
aa(lp346
F6.60255738175
aa(lp347
F0.318791302828
aa(lp348
F6.03050929817
aa(lp349
F5.60122395788
aa(lp350
F6.70404757629
aa(lp351
F6.89909018478
aa(lp352
F3.93311696545
aa(lp353
F2.85058747572
aa(lp354
F5.87423668693
aa(lp355
F6.83642864105
aa(lp356
F7.13882679919
aa(lp357
F5.77079137403
aa(lp358
F1.60431682258
aa(lp359
F5.9384036718
aa(lp360
F9.50541938013
aa(lp361
F6.41684068788
aa(lp362
F5.55146619539
aa(lp363
F5.65747271336
aa(lp364
F6.97880036068
aa(lp365
F3.93016473671
aa(lp366
F6.13149116192
aa(lp367
F6.95737226336
aa(lp368
F5.47275312986
aa(lp369
F0.661443393061
aa(lp370
F4.62603046661
aa(lp371
F5.40289675053
aa(lp372
F5.23221491692
aa(lp373
F6.76051139478
aa(lp374
F6.14560711655
aa(lp375
F6.50429313253
aa(lp376
F7.11628428439
aa(lp377
F5.6009697925
aa(lp378
F6.83048508121
aa(lp379
F5.59434194122
aa(lp380
F0.556377287029
aa(lp381
F6.64343890685
aa(lp382
F4.98049342691
aa(lp383
F5.24644817864
aa(lp384
F4.62372342693
aa(lp385
F6.3832517543
aa(lp386
F5.02465955086
aa(lp387
F7.6043991364
aa(lp388
F5.9650128328
aa(lp389
F5.74959789091
aa(lp390
F7.14463350074
aa(lp391
F0.600187579442
aa(lp392
F1.47672579782
aa(lp393
F7.00660214389
aa(lp394
F5.57774298627
aa(lp395
F6.77194883724
aa(lp396
F4.1250900381
aa(lp397
F5.74101492127
aa(lp398
F5.77988267444
aa(lp399
F7.59855333247
aa(lp400
F8.27672524113
aa(lp401
F5.96114169843
aa(lp402
F0.322977211256
aa(lp403
F4.25027626727
aa(lp404
F5.94129724699
aa(lp405
F6.12376844437
aa(lp406
F7.00726688414
aa(lp407
F6.66977435128
aa(lp408
F6.99000318894
aa(lp409
F6.04200539418
aa(lp410
F7.13172971951
aa(lp411
F4.29645616315
aa(lp412
F6.45963822898
aa(lp413
F1.12865411947
aa(lp414
F4.05306347739
aa(lp415
F6.38524597504
aa(lp416
F5.59565187053
aa(lp417
F6.90814238283
aa(lp418
F5.95961670611
aa(lp419
F4.97106975637
aa(lp420
F3.06125147998
aa(lp421
F5.2387059099
aa(lp422
F6.41113174224
aa(lp423
F5.58425353044
aa(lp424
F0.450617113976
aa(lp425
F6.15708366137
aa(lp426
F4.83012527315
aa(lp427
F5.15674734787
aa(lp428
F7.1039279363
aa(lp429
F6.25493733574
aa(lp430
F6.16283170938
aa(lp431
F1.56564458124
aa(lp432
F5.8752337973
aa(lp433
F5.62546742566
aa(lp434
F5.69143311943
aa(lp435
F0.849121070657
aa(lp436
F5.60769539968
aa(lp437
F5.59436149241
aa(lp438
F5.5068699454
aa(lp439
F5.479048611
aa(lp440
F6.87627395341
aa(lp441
F6.64304788317
aa(lp442
F8.8239824238
aa(lp443
F6.2600206435
aa(lp444
F5.42029730402
aa(lp445
F4.47748057293
aa(lp446
F0.472926969685
aa(lp447
F0.137092377205
aa(lp448
F1.33326507725
aa(lp449
F0.019873255391
aa(lp450
F1.76837080492
aa(lp451
F1.2425866873
aa(lp452
F1.13515293292
aa(lp453
F0.964062479571
aa(lp454
F1.64777910392
aa(lp455
F-0.101477031536
aa(lp456
F1.16408868479
aa(lp457
F2.16944378714
aa(lp458
F1.81617344904
aa(lp459
F0.261042971563
aa(lp460
F0.589475485898
aa(lp461
F0.644635240443
aa(lp462
F1.6198795648
aa(lp463
F-0.0900102623021
aa(lp464
F0.0977769019223
aa(lp465
F0.397009723417
aa(lp466
F0.885640726672
aa(lp467
F1.36842397088
aa(lp468
F1.96487975219
aa(lp469
F0.748829363682
aa(lp470
F1.74215266759
aa(lp471
F1.06234236974
aa(lp472
F0.860259380005
aa(lp473
F0.636134385774
aa(lp474
F1.46572434675
aa(lp475
F0.088752075531
aa(lp476
F1.06700337194
aa(lp477
F0.5219847998
aa(lp478
F1.69998076437
aa(lp479
F1.55328823315
aa(lp480
F1.97731430502
aa(lp481
F3.48756504034
aa(lp482
F2.96742534945
aa(lp483
F1.86256840794
aa(lp484
F0.87715551295
aa(lp485
F0.624057619609
aa(lp486
F1.22636507019
aa(lp487
F0.451801915708
aa(lp488
F0.950667963625
aa(lp489
F0.451012047887
aa(lp490
F-0.181153970428
aa(lp491
F1.90223775965
aa(lp492
F0.603026411314
aa(lp493
F0.323741662538
aa(lp494
F0.530139598517
aa(lp495
F1.34544155446
aa(lp496
F0.901340327175
aa(lp497
F0.696793888291
aa(lp498
F1.13453902576
aa(lp499
F0.952292666989
aa(lp500
F1.4510511834
aa.